
/home/haobo/code_project/2440_boot/debug/obj/boot_elf:     file format elf32-littlearm


Disassembly of section .text:

30000000 <_start>:
30000000:	ea000010 	b	30000048 <reset>
30000004:	e59ff014 	ldr	pc, [pc, #20]	; 30000020 <_undefined_instruction>
30000008:	e59ff014 	ldr	pc, [pc, #20]	; 30000024 <_software_interrupt>
3000000c:	e59ff014 	ldr	pc, [pc, #20]	; 30000028 <_prefetch_abort>
30000010:	e59ff014 	ldr	pc, [pc, #20]	; 3000002c <_data_abort>
30000014:	e59ff014 	ldr	pc, [pc, #20]	; 30000030 <_not_used>
30000018:	ea000005 	b	30000034 <_irq>
3000001c:	e59ff020 	ldr	pc, [pc, #32]	; 30000044 <_fiq>

30000020 <_undefined_instruction>:
30000020:	30000104 	andcc	r0, r0, r4, lsl #2

30000024 <_software_interrupt>:
30000024:	30000108 	andcc	r0, r0, r8, lsl #2

30000028 <_prefetch_abort>:
30000028:	3000010c 	andcc	r0, r0, ip, lsl #2

3000002c <_data_abort>:
3000002c:	30000110 	andcc	r0, r0, r0, lsl r1

30000030 <_not_used>:
30000030:	30000114 	andcc	r0, r0, r4, lsl r1

30000034 <_irq>:
30000034:	e24ee004 	sub	lr, lr, #4
30000038:	e92d5fff 	push	{r0, r1, r2, r3, r4, r5, r6, r7, r8, r9, sl, fp, ip, lr}
3000003c:	e59fe0dc 	ldr	lr, [pc, #220]	; 30000120 <fiq+0x4>

30000040 <int_return>:
30000040:	e8fd9fff 	ldm	sp!, {r0, r1, r2, r3, r4, r5, r6, r7, r8, r9, sl, fp, ip, pc}^

30000044 <_fiq>:
30000044:	3000011c 	andcc	r0, r0, ip, lsl r1

30000048 <reset>:
30000048:	eb000016 	bl	300000a8 <disable_watch_dog>
3000004c:	e3a0d602 	mov	sp, #2097152	; 0x200000
30000050:	eb00000b 	bl	30000084 <mem_controller_setup>
30000054:	eb000002 	bl	30000064 <copy_4096_to_sdram>
30000058:	e3a0d30d 	mov	sp, #872415232	; 0x34000000
3000005c:	e59ff0c0 	ldr	pc, [pc, #192]	; 30000124 <fiq+0x8>

30000060 <loop>:
30000060:	eafffffe 	b	30000060 <loop>

30000064 <copy_4096_to_sdram>:
30000064:	e3a01000 	mov	r1, #0
30000068:	e3a02203 	mov	r2, #805306368	; 0x30000000
3000006c:	e3a03a0a 	mov	r3, #40960	; 0xa000

30000070 <b>:
30000070:	e4914004 	ldr	r4, [r1], #4
30000074:	e4824004 	str	r4, [r2], #4
30000078:	e1510003 	cmp	r1, r3
3000007c:	1afffffb 	bne	30000070 <b>
30000080:	e1a0f00e 	mov	pc, lr

30000084 <mem_controller_setup>:
30000084:	e3a01312 	mov	r1, #1207959552	; 0x48000000
30000088:	e28f2040 	add	r2, pc, #64	; 0x40
3000008c:	e1a00000 	nop			; (mov r0, r0)
30000090:	e2813034 	add	r3, r1, #52	; 0x34

30000094 <a>:
30000094:	e4924004 	ldr	r4, [r2], #4
30000098:	e4814004 	str	r4, [r1], #4
3000009c:	e1510003 	cmp	r1, r3
300000a0:	1afffffb 	bne	30000094 <a>
300000a4:	e1a0f00e 	mov	pc, lr

300000a8 <disable_watch_dog>:
300000a8:	e3a01453 	mov	r1, #1392508928	; 0x53000000
300000ac:	e28f200c 	add	r2, pc, #12
300000b0:	e1a00000 	nop			; (mov r0, r0)
300000b4:	e5924000 	ldr	r4, [r2]
300000b8:	e5814000 	str	r4, [r1]
300000bc:	e1a0f00e 	mov	pc, lr

300000c0 <WAT_CON_REG_VAL>:
300000c0:	00000000 	andeq	r0, r0, r0
300000c4:	e1a00000 	nop			; (mov r0, r0)
300000c8:	e1a00000 	nop			; (mov r0, r0)
300000cc:	e1a00000 	nop			; (mov r0, r0)

300000d0 <MEM_CON_REG_VAL>:
300000d0:	22011110 	andcs	r1, r1, #16, 2
300000d4:	00000700 	andeq	r0, r0, r0, lsl #14
300000d8:	00000700 	andeq	r0, r0, r0, lsl #14
300000dc:	00000700 	andeq	r0, r0, r0, lsl #14
300000e0:	00000700 	andeq	r0, r0, r0, lsl #14
300000e4:	00000700 	andeq	r0, r0, r0, lsl #14
300000e8:	00000700 	andeq	r0, r0, r0, lsl #14
300000ec:	00018005 	andeq	r8, r1, r5
300000f0:	00018005 	andeq	r8, r1, r5
300000f4:	008c07a3 	addeq	r0, ip, r3, lsr #15
300000f8:	000000b1 	strheq	r0, [r0], -r1
300000fc:	00000030 	andeq	r0, r0, r0, lsr r0
30000100:	00000030 	andeq	r0, r0, r0, lsr r0

30000104 <undefined_instruction>:
30000104:	e1a00000 	nop			; (mov r0, r0)

30000108 <software_interrupt>:
30000108:	e1a00000 	nop			; (mov r0, r0)

3000010c <prefetch_abort>:
3000010c:	e1a00000 	nop			; (mov r0, r0)

30000110 <data_abort>:
30000110:	e1a00000 	nop			; (mov r0, r0)

30000114 <not_used>:
30000114:	e1a00000 	nop			; (mov r0, r0)

30000118 <irq>:
30000118:	e1a00000 	nop			; (mov r0, r0)

3000011c <fiq>:
3000011c:	e1a00000 	nop			; (mov r0, r0)
30000120:	30000040 	andcc	r0, r0, r0, asr #32
30000124:	3000111c 	andcc	r1, r0, ip, lsl r1
30000128:	00001341 	andeq	r1, r0, r1, asr #6
3000012c:	61656100 	cmnvs	r5, r0, lsl #2
30000130:	01006962 	tsteq	r0, r2, ror #18
30000134:	00000009 	andeq	r0, r0, r9
30000138:	01080106 	tsteq	r8, r6, lsl #2

3000013c <cmd_analyze>:
3000013c:	e92d4800 	push	{fp, lr}
30000140:	e28db004 	add	fp, sp, #4
30000144:	e24dd008 	sub	sp, sp, #8
30000148:	e50b0008 	str	r0, [fp, #-8]
3000014c:	e59f01d4 	ldr	r0, [pc, #468]	; 30000328 <cmd_analyze+0x1ec>
30000150:	e51b1008 	ldr	r1, [fp, #-8]
30000154:	eb000b6f 	bl	30002f18 <str_cmp>
30000158:	e1a03000 	mov	r3, r0
3000015c:	e3530001 	cmp	r3, #1
30000160:	0a000005 	beq	3000017c <cmd_analyze+0x40>
30000164:	e59f01c0 	ldr	r0, [pc, #448]	; 3000032c <cmd_analyze+0x1f0>
30000168:	e51b1008 	ldr	r1, [fp, #-8]
3000016c:	eb000b69 	bl	30002f18 <str_cmp>
30000170:	e1a03000 	mov	r3, r0
30000174:	e3530001 	cmp	r3, #1
30000178:	1a000001 	bne	30000184 <cmd_analyze+0x48>
3000017c:	e3a03000 	mov	r3, #0
30000180:	ea000064 	b	30000318 <cmd_analyze+0x1dc>
30000184:	e59f01a4 	ldr	r0, [pc, #420]	; 30000330 <cmd_analyze+0x1f4>
30000188:	e51b1008 	ldr	r1, [fp, #-8]
3000018c:	eb000b61 	bl	30002f18 <str_cmp>
30000190:	e1a03000 	mov	r3, r0
30000194:	e3530001 	cmp	r3, #1
30000198:	0a000005 	beq	300001b4 <cmd_analyze+0x78>
3000019c:	e59f0190 	ldr	r0, [pc, #400]	; 30000334 <cmd_analyze+0x1f8>
300001a0:	e51b1008 	ldr	r1, [fp, #-8]
300001a4:	eb000b5b 	bl	30002f18 <str_cmp>
300001a8:	e1a03000 	mov	r3, r0
300001ac:	e3530001 	cmp	r3, #1
300001b0:	1a000001 	bne	300001bc <cmd_analyze+0x80>
300001b4:	e3a03007 	mov	r3, #7
300001b8:	ea000056 	b	30000318 <cmd_analyze+0x1dc>
300001bc:	e59f0174 	ldr	r0, [pc, #372]	; 30000338 <cmd_analyze+0x1fc>
300001c0:	e51b1008 	ldr	r1, [fp, #-8]
300001c4:	eb000b53 	bl	30002f18 <str_cmp>
300001c8:	e1a03000 	mov	r3, r0
300001cc:	e3530001 	cmp	r3, #1
300001d0:	0a000005 	beq	300001ec <cmd_analyze+0xb0>
300001d4:	e59f0160 	ldr	r0, [pc, #352]	; 3000033c <cmd_analyze+0x200>
300001d8:	e51b1008 	ldr	r1, [fp, #-8]
300001dc:	eb000b4d 	bl	30002f18 <str_cmp>
300001e0:	e1a03000 	mov	r3, r0
300001e4:	e3530001 	cmp	r3, #1
300001e8:	1a000001 	bne	300001f4 <cmd_analyze+0xb8>
300001ec:	e3a03003 	mov	r3, #3
300001f0:	ea000048 	b	30000318 <cmd_analyze+0x1dc>
300001f4:	e59f0144 	ldr	r0, [pc, #324]	; 30000340 <cmd_analyze+0x204>
300001f8:	e51b1008 	ldr	r1, [fp, #-8]
300001fc:	eb000b45 	bl	30002f18 <str_cmp>
30000200:	e1a03000 	mov	r3, r0
30000204:	e3530001 	cmp	r3, #1
30000208:	0a000005 	beq	30000224 <cmd_analyze+0xe8>
3000020c:	e59f0130 	ldr	r0, [pc, #304]	; 30000344 <cmd_analyze+0x208>
30000210:	e51b1008 	ldr	r1, [fp, #-8]
30000214:	eb000b3f 	bl	30002f18 <str_cmp>
30000218:	e1a03000 	mov	r3, r0
3000021c:	e3530001 	cmp	r3, #1
30000220:	1a000001 	bne	3000022c <cmd_analyze+0xf0>
30000224:	e3a03005 	mov	r3, #5
30000228:	ea00003a 	b	30000318 <cmd_analyze+0x1dc>
3000022c:	e59f0114 	ldr	r0, [pc, #276]	; 30000348 <cmd_analyze+0x20c>
30000230:	e51b1008 	ldr	r1, [fp, #-8]
30000234:	eb000b37 	bl	30002f18 <str_cmp>
30000238:	e1a03000 	mov	r3, r0
3000023c:	e3530001 	cmp	r3, #1
30000240:	0a000005 	beq	3000025c <cmd_analyze+0x120>
30000244:	e59f0100 	ldr	r0, [pc, #256]	; 3000034c <cmd_analyze+0x210>
30000248:	e51b1008 	ldr	r1, [fp, #-8]
3000024c:	eb000b31 	bl	30002f18 <str_cmp>
30000250:	e1a03000 	mov	r3, r0
30000254:	e3530001 	cmp	r3, #1
30000258:	1a000001 	bne	30000264 <cmd_analyze+0x128>
3000025c:	e3a03001 	mov	r3, #1
30000260:	ea00002c 	b	30000318 <cmd_analyze+0x1dc>
30000264:	e59f00e4 	ldr	r0, [pc, #228]	; 30000350 <cmd_analyze+0x214>
30000268:	e51b1008 	ldr	r1, [fp, #-8]
3000026c:	eb000b29 	bl	30002f18 <str_cmp>
30000270:	e1a03000 	mov	r3, r0
30000274:	e3530001 	cmp	r3, #1
30000278:	0a000005 	beq	30000294 <cmd_analyze+0x158>
3000027c:	e59f00d0 	ldr	r0, [pc, #208]	; 30000354 <cmd_analyze+0x218>
30000280:	e51b1008 	ldr	r1, [fp, #-8]
30000284:	eb000b23 	bl	30002f18 <str_cmp>
30000288:	e1a03000 	mov	r3, r0
3000028c:	e3530001 	cmp	r3, #1
30000290:	1a000001 	bne	3000029c <cmd_analyze+0x160>
30000294:	e3a03004 	mov	r3, #4
30000298:	ea00001e 	b	30000318 <cmd_analyze+0x1dc>
3000029c:	e59f00b4 	ldr	r0, [pc, #180]	; 30000358 <cmd_analyze+0x21c>
300002a0:	e51b1008 	ldr	r1, [fp, #-8]
300002a4:	eb000b1b 	bl	30002f18 <str_cmp>
300002a8:	e1a03000 	mov	r3, r0
300002ac:	e3530001 	cmp	r3, #1
300002b0:	0a000005 	beq	300002cc <cmd_analyze+0x190>
300002b4:	e59f00a0 	ldr	r0, [pc, #160]	; 3000035c <cmd_analyze+0x220>
300002b8:	e51b1008 	ldr	r1, [fp, #-8]
300002bc:	eb000b15 	bl	30002f18 <str_cmp>
300002c0:	e1a03000 	mov	r3, r0
300002c4:	e3530001 	cmp	r3, #1
300002c8:	1a000001 	bne	300002d4 <cmd_analyze+0x198>
300002cc:	e3a03006 	mov	r3, #6
300002d0:	ea000010 	b	30000318 <cmd_analyze+0x1dc>
300002d4:	e59f0084 	ldr	r0, [pc, #132]	; 30000360 <cmd_analyze+0x224>
300002d8:	e51b1008 	ldr	r1, [fp, #-8]
300002dc:	eb000b0d 	bl	30002f18 <str_cmp>
300002e0:	e1a03000 	mov	r3, r0
300002e4:	e3530001 	cmp	r3, #1
300002e8:	0a000005 	beq	30000304 <cmd_analyze+0x1c8>
300002ec:	e59f0070 	ldr	r0, [pc, #112]	; 30000364 <cmd_analyze+0x228>
300002f0:	e51b1008 	ldr	r1, [fp, #-8]
300002f4:	eb000b07 	bl	30002f18 <str_cmp>
300002f8:	e1a03000 	mov	r3, r0
300002fc:	e3530001 	cmp	r3, #1
30000300:	1a000001 	bne	3000030c <cmd_analyze+0x1d0>
30000304:	e3a03008 	mov	r3, #8
30000308:	ea000002 	b	30000318 <cmd_analyze+0x1dc>
3000030c:	e59f0054 	ldr	r0, [pc, #84]	; 30000368 <cmd_analyze+0x22c>
30000310:	eb000ab5 	bl	30002dec <print>
30000314:	e3a030ff 	mov	r3, #255	; 0xff
30000318:	e1a00003 	mov	r0, r3
3000031c:	e24bd004 	sub	sp, fp, #4
30000320:	e8bd4800 	pop	{fp, lr}
30000324:	e12fff1e 	bx	lr
30000328:	30005394 	mulcc	r0, r4, r3
3000032c:	300053a0 	andcc	r5, r0, r0, lsr #7
30000330:	300053a8 	andcc	r5, r0, r8, lsr #7
30000334:	300053b4 			; <UNDEFINED> instruction: 0x300053b4
30000338:	300053bc 			; <UNDEFINED> instruction: 0x300053bc
3000033c:	300053c8 	andcc	r5, r0, r8, asr #7
30000340:	300053d0 	ldrdcc	r5, [r0], -r0
30000344:	300053dc 	ldrdcc	r5, [r0], -ip
30000348:	300053e4 	andcc	r5, r0, r4, ror #7
3000034c:	300053f8 	strdcc	r5, [r0], -r8
30000350:	30005400 	andcc	r5, r0, r0, lsl #8
30000354:	30005414 	andcc	r5, r0, r4, lsl r4
30000358:	3000541c 	andcc	r5, r0, ip, lsl r4
3000035c:	30005430 	andcc	r5, r0, r0, lsr r4
30000360:	30005438 	andcc	r5, r0, r8, lsr r4
30000364:	30005444 	andcc	r5, r0, r4, asr #8
30000368:	3000544c 	andcc	r5, r0, ip, asr #8

3000036c <cmd_excute>:
3000036c:	e92d4800 	push	{fp, lr}
30000370:	e28db004 	add	fp, sp, #4
30000374:	e24dd008 	sub	sp, sp, #8
30000378:	e59f01a4 	ldr	r0, [pc, #420]	; 30000524 <cmd_excute+0x1b8>
3000037c:	eb000a9a 	bl	30002dec <print>
30000380:	eb000ab8 	bl	30002e68 <scan>
30000384:	e50b0008 	str	r0, [fp, #-8]
30000388:	e51b0008 	ldr	r0, [fp, #-8]
3000038c:	ebffff6a 	bl	3000013c <cmd_analyze>
30000390:	e1a03000 	mov	r3, r0
30000394:	e54b3009 	strb	r3, [fp, #-9]
30000398:	e55b3009 	ldrb	r3, [fp, #-9]
3000039c:	e3530008 	cmp	r3, #8
300003a0:	979ff103 	ldrls	pc, [pc, r3, lsl #2]
300003a4:	eafffff3 	b	30000378 <cmd_excute+0xc>
300003a8:	300003cc 	andcc	r0, r0, ip, asr #7
300003ac:	3000042c 	andcc	r0, r0, ip, lsr #8
300003b0:	30000378 	andcc	r0, r0, r8, ror r3
300003b4:	300003ec 	andcc	r0, r0, ip, ror #7
300003b8:	30000460 	andcc	r0, r0, r0, ror #8
300003bc:	3000040c 	andcc	r0, r0, ip, lsl #8
300003c0:	30000494 	mulcc	r0, r4, r4
300003c4:	300004c8 	andcc	r0, r0, r8, asr #9
300003c8:	30000510 	andcc	r0, r0, r0, lsl r5
300003cc:	e59f3154 	ldr	r3, [pc, #340]	; 30000528 <cmd_excute+0x1bc>
300003d0:	e5d33000 	ldrb	r3, [r3]
300003d4:	e1a00003 	mov	r0, r3
300003d8:	e3a01001 	mov	r1, #1
300003dc:	eb00030d 	bl	30001018 <led_con>
300003e0:	e59f0144 	ldr	r0, [pc, #324]	; 3000052c <cmd_excute+0x1c0>
300003e4:	eb000a80 	bl	30002dec <print>
300003e8:	ea00004c 	b	30000520 <cmd_excute+0x1b4>
300003ec:	e59f313c 	ldr	r3, [pc, #316]	; 30000530 <cmd_excute+0x1c4>
300003f0:	e5d33000 	ldrb	r3, [r3]
300003f4:	e1a00003 	mov	r0, r3
300003f8:	e3a01001 	mov	r1, #1
300003fc:	eb000305 	bl	30001018 <led_con>
30000400:	e59f0124 	ldr	r0, [pc, #292]	; 3000052c <cmd_excute+0x1c0>
30000404:	eb000a78 	bl	30002dec <print>
30000408:	ea000044 	b	30000520 <cmd_excute+0x1b4>
3000040c:	e59f3120 	ldr	r3, [pc, #288]	; 30000534 <cmd_excute+0x1c8>
30000410:	e5d33000 	ldrb	r3, [r3]
30000414:	e1a00003 	mov	r0, r3
30000418:	e3a01001 	mov	r1, #1
3000041c:	eb0002fd 	bl	30001018 <led_con>
30000420:	e59f0104 	ldr	r0, [pc, #260]	; 3000052c <cmd_excute+0x1c0>
30000424:	eb000a70 	bl	30002dec <print>
30000428:	ea00003c 	b	30000520 <cmd_excute+0x1b4>
3000042c:	e59f1104 	ldr	r1, [pc, #260]	; 30000538 <cmd_excute+0x1cc>
30000430:	e59f3100 	ldr	r3, [pc, #256]	; 30000538 <cmd_excute+0x1cc>
30000434:	e5933000 	ldr	r3, [r3]
30000438:	e59f20e8 	ldr	r2, [pc, #232]	; 30000528 <cmd_excute+0x1bc>
3000043c:	e5d22000 	ldrb	r2, [r2]
30000440:	e2822003 	add	r2, r2, #3
30000444:	e3a00001 	mov	r0, #1
30000448:	e1a02210 	lsl	r2, r0, r2
3000044c:	e0233002 	eor	r3, r3, r2
30000450:	e5813000 	str	r3, [r1]
30000454:	e59f00d0 	ldr	r0, [pc, #208]	; 3000052c <cmd_excute+0x1c0>
30000458:	eb000a63 	bl	30002dec <print>
3000045c:	ea00002f 	b	30000520 <cmd_excute+0x1b4>
30000460:	e59f10d0 	ldr	r1, [pc, #208]	; 30000538 <cmd_excute+0x1cc>
30000464:	e59f30cc 	ldr	r3, [pc, #204]	; 30000538 <cmd_excute+0x1cc>
30000468:	e5933000 	ldr	r3, [r3]
3000046c:	e59f20bc 	ldr	r2, [pc, #188]	; 30000530 <cmd_excute+0x1c4>
30000470:	e5d22000 	ldrb	r2, [r2]
30000474:	e2822003 	add	r2, r2, #3
30000478:	e3a00001 	mov	r0, #1
3000047c:	e1a02210 	lsl	r2, r0, r2
30000480:	e0233002 	eor	r3, r3, r2
30000484:	e5813000 	str	r3, [r1]
30000488:	e59f009c 	ldr	r0, [pc, #156]	; 3000052c <cmd_excute+0x1c0>
3000048c:	eb000a56 	bl	30002dec <print>
30000490:	ea000022 	b	30000520 <cmd_excute+0x1b4>
30000494:	e59f109c 	ldr	r1, [pc, #156]	; 30000538 <cmd_excute+0x1cc>
30000498:	e59f3098 	ldr	r3, [pc, #152]	; 30000538 <cmd_excute+0x1cc>
3000049c:	e5933000 	ldr	r3, [r3]
300004a0:	e59f208c 	ldr	r2, [pc, #140]	; 30000534 <cmd_excute+0x1c8>
300004a4:	e5d22000 	ldrb	r2, [r2]
300004a8:	e2822003 	add	r2, r2, #3
300004ac:	e3a00001 	mov	r0, #1
300004b0:	e1a02210 	lsl	r2, r0, r2
300004b4:	e0233002 	eor	r3, r3, r2
300004b8:	e5813000 	str	r3, [r1]
300004bc:	e59f0068 	ldr	r0, [pc, #104]	; 3000052c <cmd_excute+0x1c0>
300004c0:	eb000a49 	bl	30002dec <print>
300004c4:	ea000015 	b	30000520 <cmd_excute+0x1b4>
300004c8:	e59f3058 	ldr	r3, [pc, #88]	; 30000528 <cmd_excute+0x1bc>
300004cc:	e5d33000 	ldrb	r3, [r3]
300004d0:	e1a00003 	mov	r0, r3
300004d4:	e3a01001 	mov	r1, #1
300004d8:	eb0002ce 	bl	30001018 <led_con>
300004dc:	e59f304c 	ldr	r3, [pc, #76]	; 30000530 <cmd_excute+0x1c4>
300004e0:	e5d33000 	ldrb	r3, [r3]
300004e4:	e1a00003 	mov	r0, r3
300004e8:	e3a01001 	mov	r1, #1
300004ec:	eb0002c9 	bl	30001018 <led_con>
300004f0:	e59f303c 	ldr	r3, [pc, #60]	; 30000534 <cmd_excute+0x1c8>
300004f4:	e5d33000 	ldrb	r3, [r3]
300004f8:	e1a00003 	mov	r0, r3
300004fc:	e3a01001 	mov	r1, #1
30000500:	eb0002c4 	bl	30001018 <led_con>
30000504:	e59f0020 	ldr	r0, [pc, #32]	; 3000052c <cmd_excute+0x1c0>
30000508:	eb000a37 	bl	30002dec <print>
3000050c:	ea000003 	b	30000520 <cmd_excute+0x1b4>
30000510:	eb000312 	bl	30001160 <nand_test>
30000514:	e59f0010 	ldr	r0, [pc, #16]	; 3000052c <cmd_excute+0x1c0>
30000518:	eb000a33 	bl	30002dec <print>
3000051c:	e1a00000 	nop			; (mov r0, r0)
30000520:	eaffff94 	b	30000378 <cmd_excute+0xc>
30000524:	30005460 	andcc	r5, r0, r0, ror #8
30000528:	300057d0 	ldrdcc	r5, [r0], -r0
3000052c:	3000550c 	andcc	r5, r0, ip, lsl #10
30000530:	300057d1 	ldrdcc	r5, [r0], -r1
30000534:	300057d2 	ldrdcc	r5, [r0], -r2
30000538:	56000054 			; <UNDEFINED> instruction: 0x56000054

3000053c <key_status_judge>:
3000053c:	e52db004 	push	{fp}		; (str fp, [sp, #-4]!)
30000540:	e28db000 	add	fp, sp, #0
30000544:	e24dd00c 	sub	sp, sp, #12
30000548:	e1a03000 	mov	r3, r0
3000054c:	e54b3005 	strb	r3, [fp, #-5]
30000550:	e59f30c4 	ldr	r3, [pc, #196]	; 3000061c <key_status_judge+0xe0>
30000554:	e5d33000 	ldrb	r3, [r3]
30000558:	e3530001 	cmp	r3, #1
3000055c:	0a000007 	beq	30000580 <key_status_judge+0x44>
30000560:	e3530002 	cmp	r3, #2
30000564:	0a00001a 	beq	300005d4 <key_status_judge+0x98>
30000568:	e3530000 	cmp	r3, #0
3000056c:	1a000024 	bne	30000604 <key_status_judge+0xc8>
30000570:	e59f30a4 	ldr	r3, [pc, #164]	; 3000061c <key_status_judge+0xe0>
30000574:	e3a02000 	mov	r2, #0
30000578:	e5c32000 	strb	r2, [r3]
3000057c:	ea000020 	b	30000604 <key_status_judge+0xc8>
30000580:	e59f3094 	ldr	r3, [pc, #148]	; 3000061c <key_status_judge+0xe0>
30000584:	e5d33000 	ldrb	r3, [r3]
30000588:	e3530000 	cmp	r3, #0
3000058c:	1a000003 	bne	300005a0 <key_status_judge+0x64>
30000590:	e59f3084 	ldr	r3, [pc, #132]	; 3000061c <key_status_judge+0xe0>
30000594:	e3a02001 	mov	r2, #1
30000598:	e5c32000 	strb	r2, [r3]
3000059c:	ea00000b 	b	300005d0 <key_status_judge+0x94>
300005a0:	e59f3074 	ldr	r3, [pc, #116]	; 3000061c <key_status_judge+0xe0>
300005a4:	e5d33000 	ldrb	r3, [r3]
300005a8:	e3530002 	cmp	r3, #2
300005ac:	1a000003 	bne	300005c0 <key_status_judge+0x84>
300005b0:	e59f3064 	ldr	r3, [pc, #100]	; 3000061c <key_status_judge+0xe0>
300005b4:	e3a02000 	mov	r2, #0
300005b8:	e5c32000 	strb	r2, [r3]
300005bc:	ea000003 	b	300005d0 <key_status_judge+0x94>
300005c0:	e59f3054 	ldr	r3, [pc, #84]	; 3000061c <key_status_judge+0xe0>
300005c4:	e3a02002 	mov	r2, #2
300005c8:	e5c32000 	strb	r2, [r3]
300005cc:	ea00000c 	b	30000604 <key_status_judge+0xc8>
300005d0:	ea00000b 	b	30000604 <key_status_judge+0xc8>
300005d4:	e59f3040 	ldr	r3, [pc, #64]	; 3000061c <key_status_judge+0xe0>
300005d8:	e5d33000 	ldrb	r3, [r3]
300005dc:	e3530001 	cmp	r3, #1
300005e0:	1a000003 	bne	300005f4 <key_status_judge+0xb8>
300005e4:	e59f3030 	ldr	r3, [pc, #48]	; 3000061c <key_status_judge+0xe0>
300005e8:	e3a02002 	mov	r2, #2
300005ec:	e5c32000 	strb	r2, [r3]
300005f0:	ea000002 	b	30000600 <key_status_judge+0xc4>
300005f4:	e59f3020 	ldr	r3, [pc, #32]	; 3000061c <key_status_judge+0xe0>
300005f8:	e3a02000 	mov	r2, #0
300005fc:	e5c32000 	strb	r2, [r3]
30000600:	e1a00000 	nop			; (mov r0, r0)
30000604:	e59f3010 	ldr	r3, [pc, #16]	; 3000061c <key_status_judge+0xe0>
30000608:	e5d33000 	ldrb	r3, [r3]
3000060c:	e1a00003 	mov	r0, r3
30000610:	e24bd000 	sub	sp, fp, #0
30000614:	e49db004 	pop	{fp}		; (ldr fp, [sp], #4)
30000618:	e12fff1e 	bx	lr
3000061c:	30006fdc 	ldrdcc	r6, [r0], -ip

30000620 <init_irq>:
30000620:	e52db004 	push	{fp}		; (str fp, [sp, #-4]!)
30000624:	e28db000 	add	fp, sp, #0
30000628:	e59f20cc 	ldr	r2, [pc, #204]	; 300006fc <init_irq+0xdc>
3000062c:	e59f30c8 	ldr	r3, [pc, #200]	; 300006fc <init_irq+0xdc>
30000630:	e5933000 	ldr	r3, [r3]
30000634:	e3c33003 	bic	r3, r3, #3
30000638:	e5823000 	str	r3, [r2]
3000063c:	e59f20b8 	ldr	r2, [pc, #184]	; 300006fc <init_irq+0xdc>
30000640:	e59f30b4 	ldr	r3, [pc, #180]	; 300006fc <init_irq+0xdc>
30000644:	e5933000 	ldr	r3, [r3]
30000648:	e3c33030 	bic	r3, r3, #48	; 0x30
3000064c:	e5823000 	str	r3, [r2]
30000650:	e59f20a4 	ldr	r2, [pc, #164]	; 300006fc <init_irq+0xdc>
30000654:	e59f30a0 	ldr	r3, [pc, #160]	; 300006fc <init_irq+0xdc>
30000658:	e5933000 	ldr	r3, [r3]
3000065c:	e3833022 	orr	r3, r3, #34	; 0x22
30000660:	e5823000 	str	r3, [r2]
30000664:	e59f2094 	ldr	r2, [pc, #148]	; 30000700 <init_irq+0xe0>
30000668:	e59f3090 	ldr	r3, [pc, #144]	; 30000700 <init_irq+0xe0>
3000066c:	e5933000 	ldr	r3, [r3]
30000670:	e3c330c0 	bic	r3, r3, #192	; 0xc0
30000674:	e5823000 	str	r3, [r2]
30000678:	e59f2080 	ldr	r2, [pc, #128]	; 30000700 <init_irq+0xe0>
3000067c:	e59f307c 	ldr	r3, [pc, #124]	; 30000700 <init_irq+0xe0>
30000680:	e5933000 	ldr	r3, [r3]
30000684:	e3833080 	orr	r3, r3, #128	; 0x80
30000688:	e5823000 	str	r3, [r2]
3000068c:	e59f2070 	ldr	r2, [pc, #112]	; 30000704 <init_irq+0xe4>
30000690:	e59f306c 	ldr	r3, [pc, #108]	; 30000704 <init_irq+0xe4>
30000694:	e5933000 	ldr	r3, [r3]
30000698:	e3c33b02 	bic	r3, r3, #2048	; 0x800
3000069c:	e5823000 	str	r3, [r2]
300006a0:	e59f2060 	ldr	r2, [pc, #96]	; 30000708 <init_irq+0xe8>
300006a4:	e59f305c 	ldr	r3, [pc, #92]	; 30000708 <init_irq+0xe8>
300006a8:	e5933000 	ldr	r3, [r3]
300006ac:	e3c33001 	bic	r3, r3, #1
300006b0:	e5823000 	str	r3, [r2]
300006b4:	e59f2050 	ldr	r2, [pc, #80]	; 3000070c <init_irq+0xec>
300006b8:	e59f304c 	ldr	r3, [pc, #76]	; 3000070c <init_irq+0xec>
300006bc:	e5933000 	ldr	r3, [r3]
300006c0:	e3c33001 	bic	r3, r3, #1
300006c4:	e5823000 	str	r3, [r2]
300006c8:	e59f203c 	ldr	r2, [pc, #60]	; 3000070c <init_irq+0xec>
300006cc:	e59f3038 	ldr	r3, [pc, #56]	; 3000070c <init_irq+0xec>
300006d0:	e5933000 	ldr	r3, [r3]
300006d4:	e3c33004 	bic	r3, r3, #4
300006d8:	e5823000 	str	r3, [r2]
300006dc:	e59f2028 	ldr	r2, [pc, #40]	; 3000070c <init_irq+0xec>
300006e0:	e59f3024 	ldr	r3, [pc, #36]	; 3000070c <init_irq+0xec>
300006e4:	e5933000 	ldr	r3, [r3]
300006e8:	e3c33020 	bic	r3, r3, #32
300006ec:	e5823000 	str	r3, [r2]
300006f0:	e24bd000 	sub	sp, fp, #0
300006f4:	e49db004 	pop	{fp}		; (ldr fp, [sp], #4)
300006f8:	e12fff1e 	bx	lr
300006fc:	56000050 			; <UNDEFINED> instruction: 0x56000050
30000700:	56000060 	strpl	r0, [r0], -r0, rrx
30000704:	560000a4 	strpl	r0, [r0], -r4, lsr #1
30000708:	4a00000c 	bmi	30000740 <IRQ_Handle+0x30>
3000070c:	4a000008 	bmi	30000734 <IRQ_Handle+0x24>

30000710 <IRQ_Handle>:
30000710:	e52db004 	push	{fp}		; (str fp, [sp, #-4]!)
30000714:	e28db000 	add	fp, sp, #0
30000718:	e59f3158 	ldr	r3, [pc, #344]	; 30000878 <IRQ_Handle+0x168>
3000071c:	e5933000 	ldr	r3, [r3]
30000720:	e3530000 	cmp	r3, #0
30000724:	1a00001d 	bne	300007a0 <IRQ_Handle+0x90>
30000728:	e59f214c 	ldr	r2, [pc, #332]	; 3000087c <IRQ_Handle+0x16c>
3000072c:	e59f3148 	ldr	r3, [pc, #328]	; 3000087c <IRQ_Handle+0x16c>
30000730:	e5933000 	ldr	r3, [r3]
30000734:	e3833001 	orr	r3, r3, #1
30000738:	e5823000 	str	r3, [r2]
3000073c:	e59f213c 	ldr	r2, [pc, #316]	; 30000880 <IRQ_Handle+0x170>
30000740:	e59f3138 	ldr	r3, [pc, #312]	; 30000880 <IRQ_Handle+0x170>
30000744:	e5933000 	ldr	r3, [r3]
30000748:	e3833001 	orr	r3, r3, #1
3000074c:	e5823000 	str	r3, [r2]
30000750:	e3a0244a 	mov	r2, #1241513984	; 0x4a000000
30000754:	e3a0344a 	mov	r3, #1241513984	; 0x4a000000
30000758:	e5933000 	ldr	r3, [r3]
3000075c:	e3833001 	orr	r3, r3, #1
30000760:	e5823000 	str	r3, [r2]
30000764:	e59f1118 	ldr	r1, [pc, #280]	; 30000884 <IRQ_Handle+0x174>
30000768:	e59f3114 	ldr	r3, [pc, #276]	; 30000884 <IRQ_Handle+0x174>
3000076c:	e5933000 	ldr	r3, [r3]
30000770:	e59f2110 	ldr	r2, [pc, #272]	; 30000888 <IRQ_Handle+0x178>
30000774:	e5d22000 	ldrb	r2, [r2]
30000778:	e2822003 	add	r2, r2, #3
3000077c:	e3a00001 	mov	r0, #1
30000780:	e1a02210 	lsl	r2, r0, r2
30000784:	e0233002 	eor	r3, r3, r2
30000788:	e5813000 	str	r3, [r1]
3000078c:	e59f20e8 	ldr	r2, [pc, #232]	; 3000087c <IRQ_Handle+0x16c>
30000790:	e59f30e4 	ldr	r3, [pc, #228]	; 3000087c <IRQ_Handle+0x16c>
30000794:	e5933000 	ldr	r3, [r3]
30000798:	e3c33001 	bic	r3, r3, #1
3000079c:	e5823000 	str	r3, [r2]
300007a0:	e59f30d0 	ldr	r3, [pc, #208]	; 30000878 <IRQ_Handle+0x168>
300007a4:	e5933000 	ldr	r3, [r3]
300007a8:	e3530002 	cmp	r3, #2
300007ac:	1a000013 	bne	30000800 <IRQ_Handle+0xf0>
300007b0:	e59f20c8 	ldr	r2, [pc, #200]	; 30000880 <IRQ_Handle+0x170>
300007b4:	e59f30c4 	ldr	r3, [pc, #196]	; 30000880 <IRQ_Handle+0x170>
300007b8:	e5933000 	ldr	r3, [r3]
300007bc:	e3833004 	orr	r3, r3, #4
300007c0:	e5823000 	str	r3, [r2]
300007c4:	e3a0244a 	mov	r2, #1241513984	; 0x4a000000
300007c8:	e3a0344a 	mov	r3, #1241513984	; 0x4a000000
300007cc:	e5933000 	ldr	r3, [r3]
300007d0:	e3833004 	orr	r3, r3, #4
300007d4:	e5823000 	str	r3, [r2]
300007d8:	e59f10a4 	ldr	r1, [pc, #164]	; 30000884 <IRQ_Handle+0x174>
300007dc:	e59f30a0 	ldr	r3, [pc, #160]	; 30000884 <IRQ_Handle+0x174>
300007e0:	e5933000 	ldr	r3, [r3]
300007e4:	e59f20a0 	ldr	r2, [pc, #160]	; 3000088c <IRQ_Handle+0x17c>
300007e8:	e5d22000 	ldrb	r2, [r2]
300007ec:	e2822003 	add	r2, r2, #3
300007f0:	e3a00001 	mov	r0, #1
300007f4:	e1a02210 	lsl	r2, r0, r2
300007f8:	e0233002 	eor	r3, r3, r2
300007fc:	e5813000 	str	r3, [r1]
30000800:	e59f3070 	ldr	r3, [pc, #112]	; 30000878 <IRQ_Handle+0x168>
30000804:	e5933000 	ldr	r3, [r3]
30000808:	e3530005 	cmp	r3, #5
3000080c:	1a000016 	bne	3000086c <IRQ_Handle+0x15c>
30000810:	e59f106c 	ldr	r1, [pc, #108]	; 30000884 <IRQ_Handle+0x174>
30000814:	e59f3068 	ldr	r3, [pc, #104]	; 30000884 <IRQ_Handle+0x174>
30000818:	e5933000 	ldr	r3, [r3]
3000081c:	e59f206c 	ldr	r2, [pc, #108]	; 30000890 <IRQ_Handle+0x180>
30000820:	e5d22000 	ldrb	r2, [r2]
30000824:	e2822003 	add	r2, r2, #3
30000828:	e3a00001 	mov	r0, #1
3000082c:	e1a02210 	lsl	r2, r0, r2
30000830:	e0233002 	eor	r3, r3, r2
30000834:	e5813000 	str	r3, [r1]
30000838:	e59f3054 	ldr	r3, [pc, #84]	; 30000894 <IRQ_Handle+0x184>
3000083c:	e3a02b02 	mov	r2, #2048	; 0x800
30000840:	e5832000 	str	r2, [r3]
30000844:	e59f2034 	ldr	r2, [pc, #52]	; 30000880 <IRQ_Handle+0x170>
30000848:	e59f3030 	ldr	r3, [pc, #48]	; 30000880 <IRQ_Handle+0x170>
3000084c:	e5933000 	ldr	r3, [r3]
30000850:	e3833020 	orr	r3, r3, #32
30000854:	e5823000 	str	r3, [r2]
30000858:	e3a0244a 	mov	r2, #1241513984	; 0x4a000000
3000085c:	e3a0344a 	mov	r3, #1241513984	; 0x4a000000
30000860:	e5933000 	ldr	r3, [r3]
30000864:	e3833020 	orr	r3, r3, #32
30000868:	e5823000 	str	r3, [r2]
3000086c:	e24bd000 	sub	sp, fp, #0
30000870:	e49db004 	pop	{fp}		; (ldr fp, [sp], #4)
30000874:	e12fff1e 	bx	lr
30000878:	4a000014 	bmi	300008d0 <clock_init+0x38>
3000087c:	4a000008 	bmi	300008a4 <clock_init+0xc>
30000880:	4a000010 	bmi	300008c8 <clock_init+0x30>
30000884:	56000054 			; <UNDEFINED> instruction: 0x56000054
30000888:	300057d0 	ldrdcc	r5, [r0], -r0
3000088c:	300057d1 	ldrdcc	r5, [r0], -r1
30000890:	300057d2 	ldrdcc	r5, [r0], -r2
30000894:	560000a8 	strpl	r0, [r0], -r8, lsr #1

30000898 <clock_init>:
30000898:	e92d4800 	push	{fp, lr}
3000089c:	e28db004 	add	fp, sp, #4
300008a0:	e59f3090 	ldr	r3, [pc, #144]	; 30000938 <clock_init+0xa0>
300008a4:	e5d33000 	ldrb	r3, [r3]
300008a8:	e1a00003 	mov	r0, r3
300008ac:	e3a01001 	mov	r1, #1
300008b0:	eb0001d8 	bl	30001018 <led_con>
300008b4:	e3a03313 	mov	r3, #1275068416	; 0x4c000000
300008b8:	e3e024ff 	mvn	r2, #-16777216	; 0xff000000
300008bc:	e5832000 	str	r2, [r3]
300008c0:	ee111f10 	mrc	15, 0, r1, cr1, cr0, {0}
300008c4:	e3811103 	orr	r1, r1, #-1073741824	; 0xc0000000
300008c8:	ee011f10 	mcr	15, 0, r1, cr1, cr0, {0}
300008cc:	e59f2068 	ldr	r2, [pc, #104]	; 3000093c <clock_init+0xa4>
300008d0:	e59f3064 	ldr	r3, [pc, #100]	; 3000093c <clock_init+0xa4>
300008d4:	e5933000 	ldr	r3, [r3]
300008d8:	e3833005 	orr	r3, r3, #5
300008dc:	e5823000 	str	r3, [r2]
300008e0:	e59f3058 	ldr	r3, [pc, #88]	; 30000940 <clock_init+0xa8>
300008e4:	e59f2058 	ldr	r2, [pc, #88]	; 30000944 <clock_init+0xac>
300008e8:	e5832000 	str	r2, [r3]
300008ec:	e59f3054 	ldr	r3, [pc, #84]	; 30000948 <clock_init+0xb0>
300008f0:	e5d33000 	ldrb	r3, [r3]
300008f4:	e1a00003 	mov	r0, r3
300008f8:	e3a01001 	mov	r1, #1
300008fc:	eb0001c5 	bl	30001018 <led_con>
30000900:	e59f3044 	ldr	r3, [pc, #68]	; 3000094c <clock_init+0xb4>
30000904:	e5933000 	ldr	r3, [r3]
30000908:	e59f303c 	ldr	r3, [pc, #60]	; 3000094c <clock_init+0xb4>
3000090c:	e3a02000 	mov	r2, #0
30000910:	e5832000 	str	r2, [r3]
30000914:	e59f2030 	ldr	r2, [pc, #48]	; 3000094c <clock_init+0xb4>
30000918:	e59f302c 	ldr	r3, [pc, #44]	; 3000094c <clock_init+0xb4>
3000091c:	e5933000 	ldr	r3, [r3]
30000920:	e3833b09 	orr	r3, r3, #9216	; 0x2400
30000924:	e3833010 	orr	r3, r3, #16
30000928:	e5823000 	str	r3, [r2]
3000092c:	e24bd004 	sub	sp, fp, #4
30000930:	e8bd4800 	pop	{fp, lr}
30000934:	e12fff1e 	bx	lr
30000938:	300057d0 	ldrdcc	r5, [r0], -r0
3000093c:	4c000014 	stcmi	0, cr0, [r0], {20}
30000940:	4c000004 	stcmi	0, cr0, [r0], {4}
30000944:	0005c011 	andeq	ip, r5, r1, lsl r0
30000948:	300057d1 	ldrdcc	r5, [r0], -r1
3000094c:	4c00000c 	stcmi	0, cr0, [r0], {12}

30000950 <wait>:
30000950:	e52db004 	push	{fp}		; (str fp, [sp, #-4]!)
30000954:	e28db000 	add	fp, sp, #0
30000958:	e24dd00c 	sub	sp, sp, #12
3000095c:	e50b0008 	str	r0, [fp, #-8]
30000960:	ea000002 	b	30000970 <wait+0x20>
30000964:	e51b3008 	ldr	r3, [fp, #-8]
30000968:	e2433001 	sub	r3, r3, #1
3000096c:	e50b3008 	str	r3, [fp, #-8]
30000970:	e51b3008 	ldr	r3, [fp, #-8]
30000974:	e3530000 	cmp	r3, #0
30000978:	1afffff9 	bne	30000964 <wait+0x14>
3000097c:	e24bd000 	sub	sp, fp, #0
30000980:	e49db004 	pop	{fp}		; (ldr fp, [sp], #4)
30000984:	e12fff1e 	bx	lr
	...

30000990 <__do_div64>:
30000990:	e254c001 	subs	ip, r4, #1
30000994:	9a00003f 	bls	30000a98 <__do_div64+0x108>
30000998:	e11c0004 	tst	ip, r4
3000099c:	0a000028 	beq	30000a44 <__do_div64+0xb4>
300009a0:	e1510004 	cmp	r1, r4
300009a4:	e3a03000 	mov	r3, #0
300009a8:	3a00000c 	bcc	300009e0 <__do_div64+0x50>
300009ac:	e1a02004 	mov	r2, r4
300009b0:	e3a0c001 	mov	ip, #1
300009b4:	e3520102 	cmp	r2, #-2147483648	; 0x80000000
300009b8:	31520001 	cmpcc	r2, r1
300009bc:	31a02082 	lslcc	r2, r2, #1
300009c0:	31a0c08c 	lslcc	ip, ip, #1
300009c4:	3afffffa 	bcc	300009b4 <__do_div64+0x24>
300009c8:	e1510002 	cmp	r1, r2
300009cc:	2183300c 	orrcs	r3, r3, ip
300009d0:	20511002 	subscs	r1, r1, r2
300009d4:	11b0c0ac 	lsrsne	ip, ip, #1
300009d8:	e1a020a2 	lsr	r2, r2, #1
300009dc:	1afffff9 	bne	300009c8 <__do_div64+0x38>
300009e0:	e3510000 	cmp	r1, #0
300009e4:	e3a02000 	mov	r2, #0
300009e8:	01500004 	cmpeq	r0, r4
300009ec:	31a01000 	movcc	r1, r0
300009f0:	31a0f00e 	movcc	pc, lr
300009f4:	e3a0c102 	mov	ip, #-2147483648	; 0x80000000
300009f8:	e1b00080 	lsls	r0, r0, #1
300009fc:	e0b11001 	adcs	r1, r1, r1
30000a00:	0a000005 	beq	30000a1c <__do_div64+0x8c>
30000a04:	31510004 	cmpcc	r1, r4
30000a08:	2182200c 	orrcs	r2, r2, ip
30000a0c:	20411004 	subcs	r1, r1, r4
30000a10:	e1b0c0ac 	lsrs	ip, ip, #1
30000a14:	1afffff7 	bne	300009f8 <__do_div64+0x68>
30000a18:	e1a0f00e 	mov	pc, lr
30000a1c:	2afffff9 	bcs	30000a08 <__do_div64+0x78>
30000a20:	e3500000 	cmp	r0, #0
30000a24:	01a0f00e 	moveq	pc, lr
30000a28:	e1b00080 	lsls	r0, r0, #1
30000a2c:	e1a0c0ac 	lsr	ip, ip, #1
30000a30:	3afffffc 	bcc	30000a28 <__do_div64+0x98>
30000a34:	e1b0c0ac 	lsrs	ip, ip, #1
30000a38:	e3a01001 	mov	r1, #1
30000a3c:	1affffed 	bne	300009f8 <__do_div64+0x68>
30000a40:	e1a0f00e 	mov	pc, lr
30000a44:	e1a02004 	mov	r2, r4
30000a48:	e3540801 	cmp	r4, #65536	; 0x10000
30000a4c:	e3a0c000 	mov	ip, #0
30000a50:	21a02822 	lsrcs	r2, r2, #16
30000a54:	23a0c010 	movcs	ip, #16
30000a58:	e3520c01 	cmp	r2, #256	; 0x100
30000a5c:	21a02422 	lsrcs	r2, r2, #8
30000a60:	228cc008 	addcs	ip, ip, #8
30000a64:	e3520010 	cmp	r2, #16
30000a68:	21a02222 	lsrcs	r2, r2, #4
30000a6c:	228cc004 	addcs	ip, ip, #4
30000a70:	e3520004 	cmp	r2, #4
30000a74:	828cc003 	addhi	ip, ip, #3
30000a78:	908cc0a2 	addls	ip, ip, r2, lsr #1
30000a7c:	e1a03c31 	lsr	r3, r1, ip
30000a80:	e1a02c30 	lsr	r2, r0, ip
30000a84:	e26cc020 	rsb	ip, ip, #32
30000a88:	e1822c11 	orr	r2, r2, r1, lsl ip
30000a8c:	e1a01c10 	lsl	r1, r0, ip
30000a90:	e1a01c31 	lsr	r1, r1, ip
30000a94:	e1a0f00e 	mov	pc, lr
30000a98:	01a02000 	moveq	r2, r0
30000a9c:	01a03001 	moveq	r3, r1
30000aa0:	03a01000 	moveq	r1, #0
30000aa4:	01a0f00e 	moveq	pc, lr
30000aa8:	e52de004 	push	{lr}		; (str lr, [sp, #-4]!)
30000aac:	e3a02000 	mov	r2, #0
30000ab0:	e3a03000 	mov	r3, #0
30000ab4:	e3a01000 	mov	r1, #0
30000ab8:	e49df004 	pop	{pc}		; (ldr pc, [sp], #4)

30000abc <raise>:
30000abc:	e92d4800 	push	{fp, lr}
30000ac0:	e28db004 	add	fp, sp, #4
30000ac4:	e59f0014 	ldr	r0, [pc, #20]	; 30000ae0 <raise+0x24>
30000ac8:	eb0004c4 	bl	30001de0 <printf>
30000acc:	e3a03001 	mov	r3, #1
30000ad0:	e1a00003 	mov	r0, r3
30000ad4:	e24bd004 	sub	sp, fp, #4
30000ad8:	e8bd4800 	pop	{fp, lr}
30000adc:	e12fff1e 	bx	lr
30000ae0:	30005530 	andcc	r5, r0, r0, lsr r5

30000ae4 <mmu_init>:
30000ae4:	e52db004 	push	{fp}		; (str fp, [sp, #-4]!)
30000ae8:	e28db000 	add	fp, sp, #0
30000aec:	e24dd00c 	sub	sp, sp, #12
30000af0:	e3a03203 	mov	r3, #805306368	; 0x30000000
30000af4:	e50b3008 	str	r3, [fp, #-8]
30000af8:	e51b3008 	ldr	r3, [fp, #-8]
30000afc:	e3a00000 	mov	r0, #0
30000b00:	ee070f17 	mcr	15, 0, r0, cr7, cr7, {0}
30000b04:	ee070f9a 	mcr	15, 0, r0, cr7, cr10, {4}
30000b08:	ee080f17 	mcr	15, 0, r0, cr8, cr7, {0}
30000b0c:	e1a04003 	mov	r4, r3
30000b10:	ee024f10 	mcr	15, 0, r4, cr2, cr0, {0}
30000b14:	e3e00000 	mvn	r0, #0
30000b18:	ee030f10 	mcr	15, 0, r0, cr3, cr0, {0}
30000b1c:	ee110f10 	mrc	15, 0, r0, cr1, cr0, {0}
30000b20:	e3c00a03 	bic	r0, r0, #12288	; 0x3000
30000b24:	e3c00c03 	bic	r0, r0, #768	; 0x300
30000b28:	e3c00087 	bic	r0, r0, #135	; 0x87
30000b2c:	e3800002 	orr	r0, r0, #2
30000b30:	e3800004 	orr	r0, r0, #4
30000b34:	e3800a01 	orr	r0, r0, #4096	; 0x1000
30000b38:	e3800001 	orr	r0, r0, #1
30000b3c:	ee010f10 	mcr	15, 0, r0, cr1, cr0, {0}
30000b40:	e24bd000 	sub	sp, fp, #0
30000b44:	e49db004 	pop	{fp}		; (ldr fp, [sp], #4)
30000b48:	e12fff1e 	bx	lr

30000b4c <page_table_create>:
30000b4c:	e92d4800 	push	{fp, lr}
30000b50:	e28db004 	add	fp, sp, #4
30000b54:	e24dd010 	sub	sp, sp, #16
30000b58:	e3a03203 	mov	r3, #805306368	; 0x30000000
30000b5c:	e50b3010 	str	r3, [fp, #-16]
30000b60:	e3a03000 	mov	r3, #0
30000b64:	e50b3008 	str	r3, [fp, #-8]
30000b68:	e3a03000 	mov	r3, #0
30000b6c:	e50b300c 	str	r3, [fp, #-12]
30000b70:	e51b300c 	ldr	r3, [fp, #-12]
30000b74:	e1a03a23 	lsr	r3, r3, #20
30000b78:	e1a03103 	lsl	r3, r3, #2
30000b7c:	e51b2010 	ldr	r2, [fp, #-16]
30000b80:	e0822003 	add	r2, r2, r3
30000b84:	e51b3008 	ldr	r3, [fp, #-8]
30000b88:	e1a03a23 	lsr	r3, r3, #20
30000b8c:	e1a03a03 	lsl	r3, r3, #20
30000b90:	e3833ec1 	orr	r3, r3, #3088	; 0xc10
30000b94:	e383300e 	orr	r3, r3, #14
30000b98:	e5823000 	str	r3, [r2]
30000b9c:	e3a0320a 	mov	r3, #-1610612736	; 0xa0000000
30000ba0:	e50b300c 	str	r3, [fp, #-12]
30000ba4:	e3a03456 	mov	r3, #1442840576	; 0x56000000
30000ba8:	e50b3008 	str	r3, [fp, #-8]
30000bac:	e51b300c 	ldr	r3, [fp, #-12]
30000bb0:	e1a03a23 	lsr	r3, r3, #20
30000bb4:	e1a03103 	lsl	r3, r3, #2
30000bb8:	e51b2010 	ldr	r2, [fp, #-16]
30000bbc:	e0822003 	add	r2, r2, r3
30000bc0:	e51b3008 	ldr	r3, [fp, #-8]
30000bc4:	e1a03a23 	lsr	r3, r3, #20
30000bc8:	e1a03a03 	lsl	r3, r3, #20
30000bcc:	e3833ec1 	orr	r3, r3, #3088	; 0xc10
30000bd0:	e3833002 	orr	r3, r3, #2
30000bd4:	e5823000 	str	r3, [r2]
30000bd8:	e3a0320b 	mov	r3, #-1342177280	; 0xb0000000
30000bdc:	e50b300c 	str	r3, [fp, #-12]
30000be0:	e3a03203 	mov	r3, #805306368	; 0x30000000
30000be4:	e50b3008 	str	r3, [fp, #-8]
30000be8:	ea000010 	b	30000c30 <page_table_create+0xe4>
30000bec:	e51b300c 	ldr	r3, [fp, #-12]
30000bf0:	e1a03a23 	lsr	r3, r3, #20
30000bf4:	e1a03103 	lsl	r3, r3, #2
30000bf8:	e51b2010 	ldr	r2, [fp, #-16]
30000bfc:	e0822003 	add	r2, r2, r3
30000c00:	e51b3008 	ldr	r3, [fp, #-8]
30000c04:	e1a03a23 	lsr	r3, r3, #20
30000c08:	e1a03a03 	lsl	r3, r3, #20
30000c0c:	e3833ec1 	orr	r3, r3, #3088	; 0xc10
30000c10:	e383300e 	orr	r3, r3, #14
30000c14:	e5823000 	str	r3, [r2]
30000c18:	e51b300c 	ldr	r3, [fp, #-12]
30000c1c:	e2833601 	add	r3, r3, #1048576	; 0x100000
30000c20:	e50b300c 	str	r3, [fp, #-12]
30000c24:	e51b3008 	ldr	r3, [fp, #-8]
30000c28:	e2833601 	add	r3, r3, #1048576	; 0x100000
30000c2c:	e50b3008 	str	r3, [fp, #-8]
30000c30:	e51b300c 	ldr	r3, [fp, #-12]
30000c34:	e3730353 	cmn	r3, #1275068417	; 0x4c000001
30000c38:	9affffeb 	bls	30000bec <page_table_create+0xa0>
30000c3c:	ebffffa8 	bl	30000ae4 <mmu_init>
30000c40:	e24bd004 	sub	sp, fp, #4
30000c44:	e8bd4800 	pop	{fp, lr}
30000c48:	e12fff1e 	bx	lr

30000c4c <lcd_background_led_switch>:
30000c4c:	e92d4800 	push	{fp, lr}
30000c50:	e28db004 	add	fp, sp, #4
30000c54:	e24dd008 	sub	sp, sp, #8
30000c58:	e1a03000 	mov	r3, r0
30000c5c:	e54b3005 	strb	r3, [fp, #-5]
30000c60:	e55b3005 	ldrb	r3, [fp, #-5]
30000c64:	e3530001 	cmp	r3, #1
30000c68:	1a000007 	bne	30000c8c <lcd_background_led_switch+0x40>
30000c6c:	e59f2058 	ldr	r2, [pc, #88]	; 30000ccc <lcd_background_led_switch+0x80>
30000c70:	e59f3054 	ldr	r3, [pc, #84]	; 30000ccc <lcd_background_led_switch+0x80>
30000c74:	e5933000 	ldr	r3, [r3]
30000c78:	e3833001 	orr	r3, r3, #1
30000c7c:	e5823000 	str	r3, [r2]
30000c80:	e59f0048 	ldr	r0, [pc, #72]	; 30000cd0 <lcd_background_led_switch+0x84>
30000c84:	eb000858 	bl	30002dec <print>
30000c88:	ea00000c 	b	30000cc0 <lcd_background_led_switch+0x74>
30000c8c:	e55b3005 	ldrb	r3, [fp, #-5]
30000c90:	e3530000 	cmp	r3, #0
30000c94:	1a000007 	bne	30000cb8 <lcd_background_led_switch+0x6c>
30000c98:	e59f202c 	ldr	r2, [pc, #44]	; 30000ccc <lcd_background_led_switch+0x80>
30000c9c:	e59f3028 	ldr	r3, [pc, #40]	; 30000ccc <lcd_background_led_switch+0x80>
30000ca0:	e5933000 	ldr	r3, [r3]
30000ca4:	e3c33001 	bic	r3, r3, #1
30000ca8:	e5823000 	str	r3, [r2]
30000cac:	e59f001c 	ldr	r0, [pc, #28]	; 30000cd0 <lcd_background_led_switch+0x84>
30000cb0:	eb00084d 	bl	30002dec <print>
30000cb4:	ea000001 	b	30000cc0 <lcd_background_led_switch+0x74>
30000cb8:	e59f0014 	ldr	r0, [pc, #20]	; 30000cd4 <lcd_background_led_switch+0x88>
30000cbc:	eb000447 	bl	30001de0 <printf>
30000cc0:	e24bd004 	sub	sp, fp, #4
30000cc4:	e8bd4800 	pop	{fp, lr}
30000cc8:	e12fff1e 	bx	lr
30000ccc:	56000014 			; <UNDEFINED> instruction: 0x56000014
30000cd0:	30005534 	andcc	r5, r0, r4, lsr r5
30000cd4:	30005540 	andcc	r5, r0, r0, asr #10

30000cd8 <lcd_switch>:
30000cd8:	e92d4800 	push	{fp, lr}
30000cdc:	e28db004 	add	fp, sp, #4
30000ce0:	e24dd008 	sub	sp, sp, #8
30000ce4:	e1a03000 	mov	r3, r0
30000ce8:	e54b3005 	strb	r3, [fp, #-5]
30000cec:	e55b3005 	ldrb	r3, [fp, #-5]
30000cf0:	e3530001 	cmp	r3, #1
30000cf4:	1a000010 	bne	30000d3c <lcd_switch+0x64>
30000cf8:	e59f30a0 	ldr	r3, [pc, #160]	; 30000da0 <lcd_switch+0xc8>
30000cfc:	e5933000 	ldr	r3, [r3]
30000d00:	e59f2098 	ldr	r2, [pc, #152]	; 30000da0 <lcd_switch+0xc8>
30000d04:	e5922000 	ldr	r2, [r2]
30000d08:	e5922000 	ldr	r2, [r2]
30000d0c:	e3822001 	orr	r2, r2, #1
30000d10:	e5832000 	str	r2, [r3]
30000d14:	e59f3084 	ldr	r3, [pc, #132]	; 30000da0 <lcd_switch+0xc8>
30000d18:	e5933000 	ldr	r3, [r3]
30000d1c:	e59f207c 	ldr	r2, [pc, #124]	; 30000da0 <lcd_switch+0xc8>
30000d20:	e5922000 	ldr	r2, [r2]
30000d24:	e5922010 	ldr	r2, [r2, #16]
30000d28:	e3822008 	orr	r2, r2, #8
30000d2c:	e5832010 	str	r2, [r3, #16]
30000d30:	e59f006c 	ldr	r0, [pc, #108]	; 30000da4 <lcd_switch+0xcc>
30000d34:	eb00082c 	bl	30002dec <print>
30000d38:	ea000015 	b	30000d94 <lcd_switch+0xbc>
30000d3c:	e55b3005 	ldrb	r3, [fp, #-5]
30000d40:	e3530000 	cmp	r3, #0
30000d44:	1a000010 	bne	30000d8c <lcd_switch+0xb4>
30000d48:	e59f3050 	ldr	r3, [pc, #80]	; 30000da0 <lcd_switch+0xc8>
30000d4c:	e5933000 	ldr	r3, [r3]
30000d50:	e59f2048 	ldr	r2, [pc, #72]	; 30000da0 <lcd_switch+0xc8>
30000d54:	e5922000 	ldr	r2, [r2]
30000d58:	e5922000 	ldr	r2, [r2]
30000d5c:	e3c22001 	bic	r2, r2, #1
30000d60:	e5832000 	str	r2, [r3]
30000d64:	e59f3034 	ldr	r3, [pc, #52]	; 30000da0 <lcd_switch+0xc8>
30000d68:	e5933000 	ldr	r3, [r3]
30000d6c:	e59f202c 	ldr	r2, [pc, #44]	; 30000da0 <lcd_switch+0xc8>
30000d70:	e5922000 	ldr	r2, [r2]
30000d74:	e5922010 	ldr	r2, [r2, #16]
30000d78:	e3c22008 	bic	r2, r2, #8
30000d7c:	e5832010 	str	r2, [r3, #16]
30000d80:	e59f0020 	ldr	r0, [pc, #32]	; 30000da8 <lcd_switch+0xd0>
30000d84:	eb000818 	bl	30002dec <print>
30000d88:	ea000001 	b	30000d94 <lcd_switch+0xbc>
30000d8c:	e59f0018 	ldr	r0, [pc, #24]	; 30000dac <lcd_switch+0xd4>
30000d90:	eb000412 	bl	30001de0 <printf>
30000d94:	e24bd004 	sub	sp, fp, #4
30000d98:	e8bd4800 	pop	{fp, lr}
30000d9c:	e12fff1e 	bx	lr
30000da0:	30009010 	andcc	r9, r0, r0, lsl r0
30000da4:	30005578 	andcc	r5, r0, r8, ror r5
30000da8:	30005584 	andcc	r5, r0, r4, lsl #11
30000dac:	30005594 	mulcc	r0, r4, r5

30000db0 <lcd_init>:
30000db0:	e92d4800 	push	{fp, lr}
30000db4:	e28db004 	add	fp, sp, #4
30000db8:	e59f3198 	ldr	r3, [pc, #408]	; 30000f58 <lcd_init+0x1a8>
30000dbc:	e5933004 	ldr	r3, [r3, #4]
30000dc0:	e59f2194 	ldr	r2, [pc, #404]	; 30000f5c <lcd_init+0x1ac>
30000dc4:	e5832000 	str	r2, [r3]
30000dc8:	e59f3188 	ldr	r3, [pc, #392]	; 30000f58 <lcd_init+0x1a8>
30000dcc:	e5933004 	ldr	r3, [r3, #4]
30000dd0:	e59f2188 	ldr	r2, [pc, #392]	; 30000f60 <lcd_init+0x1b0>
30000dd4:	e5832004 	str	r2, [r3, #4]
30000dd8:	e59f3178 	ldr	r3, [pc, #376]	; 30000f58 <lcd_init+0x1a8>
30000ddc:	e5933004 	ldr	r3, [r3, #4]
30000de0:	e59f217c 	ldr	r2, [pc, #380]	; 30000f64 <lcd_init+0x1b4>
30000de4:	e5832008 	str	r2, [r3, #8]
30000de8:	e59f3168 	ldr	r3, [pc, #360]	; 30000f58 <lcd_init+0x1a8>
30000dec:	e5933004 	ldr	r3, [r3, #4]
30000df0:	e59f2170 	ldr	r2, [pc, #368]	; 30000f68 <lcd_init+0x1b8>
30000df4:	e583200c 	str	r2, [r3, #12]
30000df8:	e59f3158 	ldr	r3, [pc, #344]	; 30000f58 <lcd_init+0x1a8>
30000dfc:	e5933004 	ldr	r3, [r3, #4]
30000e00:	e59f2164 	ldr	r2, [pc, #356]	; 30000f6c <lcd_init+0x1bc>
30000e04:	e5832010 	str	r2, [r3, #16]
30000e08:	e59f3148 	ldr	r3, [pc, #328]	; 30000f58 <lcd_init+0x1a8>
30000e0c:	e5933004 	ldr	r3, [r3, #4]
30000e10:	e59f2158 	ldr	r2, [pc, #344]	; 30000f70 <lcd_init+0x1c0>
30000e14:	e5832014 	str	r2, [r3, #20]
30000e18:	e59f3138 	ldr	r3, [pc, #312]	; 30000f58 <lcd_init+0x1a8>
30000e1c:	e3a0244d 	mov	r2, #1291845632	; 0x4d000000
30000e20:	e5832000 	str	r2, [r3]
30000e24:	e59f2148 	ldr	r2, [pc, #328]	; 30000f74 <lcd_init+0x1c4>
30000e28:	e59f3144 	ldr	r3, [pc, #324]	; 30000f74 <lcd_init+0x1c4>
30000e2c:	e5933000 	ldr	r3, [r3]
30000e30:	e3c33003 	bic	r3, r3, #3
30000e34:	e5823000 	str	r3, [r2]
30000e38:	e59f2134 	ldr	r2, [pc, #308]	; 30000f74 <lcd_init+0x1c4>
30000e3c:	e59f3130 	ldr	r3, [pc, #304]	; 30000f74 <lcd_init+0x1c4>
30000e40:	e5933000 	ldr	r3, [r3]
30000e44:	e3833001 	orr	r3, r3, #1
30000e48:	e5823000 	str	r3, [r2]
30000e4c:	e59f3104 	ldr	r3, [pc, #260]	; 30000f58 <lcd_init+0x1a8>
30000e50:	e5933004 	ldr	r3, [r3, #4]
30000e54:	e5933010 	ldr	r3, [r3, #16]
30000e58:	e59f20f8 	ldr	r2, [pc, #248]	; 30000f58 <lcd_init+0x1a8>
30000e5c:	e5922004 	ldr	r2, [r2, #4]
30000e60:	e5922010 	ldr	r2, [r2, #16]
30000e64:	e5922000 	ldr	r2, [r2]
30000e68:	e3c22c03 	bic	r2, r2, #768	; 0x300
30000e6c:	e5832000 	str	r2, [r3]
30000e70:	e59f30e0 	ldr	r3, [pc, #224]	; 30000f58 <lcd_init+0x1a8>
30000e74:	e5933004 	ldr	r3, [r3, #4]
30000e78:	e5933010 	ldr	r3, [r3, #16]
30000e7c:	e59f20d4 	ldr	r2, [pc, #212]	; 30000f58 <lcd_init+0x1a8>
30000e80:	e5922004 	ldr	r2, [r2, #4]
30000e84:	e5922010 	ldr	r2, [r2, #16]
30000e88:	e5922000 	ldr	r2, [r2]
30000e8c:	e3822c03 	orr	r2, r2, #768	; 0x300
30000e90:	e5832000 	str	r2, [r3]
30000e94:	e59f30bc 	ldr	r3, [pc, #188]	; 30000f58 <lcd_init+0x1a8>
30000e98:	e5933004 	ldr	r3, [r3, #4]
30000e9c:	e5933008 	ldr	r3, [r3, #8]
30000ea0:	e59f20d0 	ldr	r2, [pc, #208]	; 30000f78 <lcd_init+0x1c8>
30000ea4:	e5832000 	str	r2, [r3]
30000ea8:	e59f30a8 	ldr	r3, [pc, #168]	; 30000f58 <lcd_init+0x1a8>
30000eac:	e5933004 	ldr	r3, [r3, #4]
30000eb0:	e5933000 	ldr	r3, [r3]
30000eb4:	e59f20bc 	ldr	r2, [pc, #188]	; 30000f78 <lcd_init+0x1c8>
30000eb8:	e5832000 	str	r2, [r3]
30000ebc:	e59f3094 	ldr	r3, [pc, #148]	; 30000f58 <lcd_init+0x1a8>
30000ec0:	e5933000 	ldr	r3, [r3]
30000ec4:	e59f20b0 	ldr	r2, [pc, #176]	; 30000f7c <lcd_init+0x1cc>
30000ec8:	e5832000 	str	r2, [r3]
30000ecc:	e59f3084 	ldr	r3, [pc, #132]	; 30000f58 <lcd_init+0x1a8>
30000ed0:	e5933000 	ldr	r3, [r3]
30000ed4:	e59f20a4 	ldr	r2, [pc, #164]	; 30000f80 <lcd_init+0x1d0>
30000ed8:	e5832004 	str	r2, [r3, #4]
30000edc:	e59f3074 	ldr	r3, [pc, #116]	; 30000f58 <lcd_init+0x1a8>
30000ee0:	e5933000 	ldr	r3, [r3]
30000ee4:	e59f2098 	ldr	r2, [pc, #152]	; 30000f84 <lcd_init+0x1d4>
30000ee8:	e5832008 	str	r2, [r3, #8]
30000eec:	e59f3064 	ldr	r3, [pc, #100]	; 30000f58 <lcd_init+0x1a8>
30000ef0:	e5933000 	ldr	r3, [r3]
30000ef4:	e3a02028 	mov	r2, #40	; 0x28
30000ef8:	e583200c 	str	r2, [r3, #12]
30000efc:	e59f3054 	ldr	r3, [pc, #84]	; 30000f58 <lcd_init+0x1a8>
30000f00:	e5933000 	ldr	r3, [r3]
30000f04:	e3a02b02 	mov	r2, #2048	; 0x800
30000f08:	e5832010 	str	r2, [r3, #16]
30000f0c:	e59f3044 	ldr	r3, [pc, #68]	; 30000f58 <lcd_init+0x1a8>
30000f10:	e5933000 	ldr	r3, [r3]
30000f14:	e59f206c 	ldr	r2, [pc, #108]	; 30000f88 <lcd_init+0x1d8>
30000f18:	e5832014 	str	r2, [r3, #20]
30000f1c:	e59f3034 	ldr	r3, [pc, #52]	; 30000f58 <lcd_init+0x1a8>
30000f20:	e5933000 	ldr	r3, [r3]
30000f24:	e59f2060 	ldr	r2, [pc, #96]	; 30000f8c <lcd_init+0x1dc>
30000f28:	e5832018 	str	r2, [r3, #24]
30000f2c:	e59f3024 	ldr	r3, [pc, #36]	; 30000f58 <lcd_init+0x1a8>
30000f30:	e5933000 	ldr	r3, [r3]
30000f34:	e3a02e1e 	mov	r2, #480	; 0x1e0
30000f38:	e583201c 	str	r2, [r3, #28]
30000f3c:	e3a00001 	mov	r0, #1
30000f40:	ebffff64 	bl	30000cd8 <lcd_switch>
30000f44:	e3a00001 	mov	r0, #1
30000f48:	ebffff3f 	bl	30000c4c <lcd_background_led_switch>
30000f4c:	e24bd004 	sub	sp, fp, #4
30000f50:	e8bd4800 	pop	{fp, lr}
30000f54:	e12fff1e 	bx	lr
30000f58:	30009010 	andcc	r9, r0, r0, lsl r0
30000f5c:	56000020 	strpl	r0, [r0], -r0, lsr #32
30000f60:	56000024 	strpl	r0, [r0], -r4, lsr #32
30000f64:	56000030 			; <UNDEFINED> instruction: 0x56000030
30000f68:	56000034 			; <UNDEFINED> instruction: 0x56000034
30000f6c:	56000060 	strpl	r0, [r0], -r0, rrx
30000f70:	56000064 	strpl	r0, [r0], -r4, rrx
30000f74:	56000010 			; <UNDEFINED> instruction: 0x56000010
30000f78:	aaaaaaaa 	bge	2eaaba28 <SDRAM_BASE_ADDR-0x15545d8>
30000f7c:	00000478 	andeq	r0, r0, r8, ror r4
30000f80:	0143c049 	cmpeq	r3, r9, asr #32
30000f84:	0009df01 	andeq	sp, r9, r1, lsl #30
30000f88:	18200000 	stmdane	r0!, {}	; <UNPREDICTABLE>
30000f8c:	0001fe00 	andeq	pc, r1, r0, lsl #28

30000f90 <led_init>:
30000f90:	e92d4800 	push	{fp, lr}
30000f94:	e28db004 	add	fp, sp, #4
30000f98:	e59f2068 	ldr	r2, [pc, #104]	; 30001008 <led_init+0x78>
30000f9c:	e59f3064 	ldr	r3, [pc, #100]	; 30001008 <led_init+0x78>
30000fa0:	e5933000 	ldr	r3, [r3]
30000fa4:	e3c33c3f 	bic	r3, r3, #16128	; 0x3f00
30000fa8:	e5823000 	str	r3, [r2]
30000fac:	e59f2054 	ldr	r2, [pc, #84]	; 30001008 <led_init+0x78>
30000fb0:	e59f3050 	ldr	r3, [pc, #80]	; 30001008 <led_init+0x78>
30000fb4:	e5933000 	ldr	r3, [r3]
30000fb8:	e3833c15 	orr	r3, r3, #5376	; 0x1500
30000fbc:	e5823000 	str	r3, [r2]
30000fc0:	e59f3044 	ldr	r3, [pc, #68]	; 3000100c <led_init+0x7c>
30000fc4:	e5d33000 	ldrb	r3, [r3]
30000fc8:	e1a00003 	mov	r0, r3
30000fcc:	e3a01000 	mov	r1, #0
30000fd0:	eb000010 	bl	30001018 <led_con>
30000fd4:	e59f3034 	ldr	r3, [pc, #52]	; 30001010 <led_init+0x80>
30000fd8:	e5d33000 	ldrb	r3, [r3]
30000fdc:	e1a00003 	mov	r0, r3
30000fe0:	e3a01000 	mov	r1, #0
30000fe4:	eb00000b 	bl	30001018 <led_con>
30000fe8:	e59f3024 	ldr	r3, [pc, #36]	; 30001014 <led_init+0x84>
30000fec:	e5d33000 	ldrb	r3, [r3]
30000ff0:	e1a00003 	mov	r0, r3
30000ff4:	e3a01000 	mov	r1, #0
30000ff8:	eb000006 	bl	30001018 <led_con>
30000ffc:	e24bd004 	sub	sp, fp, #4
30001000:	e8bd4800 	pop	{fp, lr}
30001004:	e12fff1e 	bx	lr
30001008:	56000050 			; <UNDEFINED> instruction: 0x56000050
3000100c:	300057d0 	ldrdcc	r5, [r0], -r0
30001010:	300057d1 	ldrdcc	r5, [r0], -r1
30001014:	300057d2 	ldrdcc	r5, [r0], -r2

30001018 <led_con>:
30001018:	e52db004 	push	{fp}		; (str fp, [sp, #-4]!)
3000101c:	e28db000 	add	fp, sp, #0
30001020:	e24dd00c 	sub	sp, sp, #12
30001024:	e1a03000 	mov	r3, r0
30001028:	e1a02001 	mov	r2, r1
3000102c:	e54b3005 	strb	r3, [fp, #-5]
30001030:	e1a03002 	mov	r3, r2
30001034:	e54b3006 	strb	r3, [fp, #-6]
30001038:	e55b3005 	ldrb	r3, [fp, #-5]
3000103c:	e3530002 	cmp	r3, #2
30001040:	0a000013 	beq	30001094 <led_con+0x7c>
30001044:	e3530003 	cmp	r3, #3
30001048:	0a000020 	beq	300010d0 <led_con+0xb8>
3000104c:	e3530001 	cmp	r3, #1
30001050:	0a000000 	beq	30001058 <led_con+0x40>
30001054:	ea00002c 	b	3000110c <led_con+0xf4>
30001058:	e55b3006 	ldrb	r3, [fp, #-6]
3000105c:	e3530000 	cmp	r3, #0
30001060:	0a000005 	beq	3000107c <led_con+0x64>
30001064:	e59f20ac 	ldr	r2, [pc, #172]	; 30001118 <led_con+0x100>
30001068:	e59f30a8 	ldr	r3, [pc, #168]	; 30001118 <led_con+0x100>
3000106c:	e5933000 	ldr	r3, [r3]
30001070:	e3c33010 	bic	r3, r3, #16
30001074:	e5823000 	str	r3, [r2]
30001078:	ea000023 	b	3000110c <led_con+0xf4>
3000107c:	e59f2094 	ldr	r2, [pc, #148]	; 30001118 <led_con+0x100>
30001080:	e59f3090 	ldr	r3, [pc, #144]	; 30001118 <led_con+0x100>
30001084:	e5933000 	ldr	r3, [r3]
30001088:	e3833010 	orr	r3, r3, #16
3000108c:	e5823000 	str	r3, [r2]
30001090:	ea00001d 	b	3000110c <led_con+0xf4>
30001094:	e55b3006 	ldrb	r3, [fp, #-6]
30001098:	e3530000 	cmp	r3, #0
3000109c:	0a000005 	beq	300010b8 <led_con+0xa0>
300010a0:	e59f2070 	ldr	r2, [pc, #112]	; 30001118 <led_con+0x100>
300010a4:	e59f306c 	ldr	r3, [pc, #108]	; 30001118 <led_con+0x100>
300010a8:	e5933000 	ldr	r3, [r3]
300010ac:	e3c33020 	bic	r3, r3, #32
300010b0:	e5823000 	str	r3, [r2]
300010b4:	ea000014 	b	3000110c <led_con+0xf4>
300010b8:	e59f2058 	ldr	r2, [pc, #88]	; 30001118 <led_con+0x100>
300010bc:	e59f3054 	ldr	r3, [pc, #84]	; 30001118 <led_con+0x100>
300010c0:	e5933000 	ldr	r3, [r3]
300010c4:	e3833020 	orr	r3, r3, #32
300010c8:	e5823000 	str	r3, [r2]
300010cc:	ea00000e 	b	3000110c <led_con+0xf4>
300010d0:	e55b3006 	ldrb	r3, [fp, #-6]
300010d4:	e3530000 	cmp	r3, #0
300010d8:	0a000005 	beq	300010f4 <led_con+0xdc>
300010dc:	e59f2034 	ldr	r2, [pc, #52]	; 30001118 <led_con+0x100>
300010e0:	e59f3030 	ldr	r3, [pc, #48]	; 30001118 <led_con+0x100>
300010e4:	e5933000 	ldr	r3, [r3]
300010e8:	e3c33040 	bic	r3, r3, #64	; 0x40
300010ec:	e5823000 	str	r3, [r2]
300010f0:	ea000004 	b	30001108 <led_con+0xf0>
300010f4:	e59f201c 	ldr	r2, [pc, #28]	; 30001118 <led_con+0x100>
300010f8:	e59f3018 	ldr	r3, [pc, #24]	; 30001118 <led_con+0x100>
300010fc:	e5933000 	ldr	r3, [r3]
30001100:	e3833040 	orr	r3, r3, #64	; 0x40
30001104:	e5823000 	str	r3, [r2]
30001108:	e1a00000 	nop			; (mov r0, r0)
3000110c:	e24bd000 	sub	sp, fp, #0
30001110:	e49db004 	pop	{fp}		; (ldr fp, [sp], #4)
30001114:	e12fff1e 	bx	lr
30001118:	56000054 			; <UNDEFINED> instruction: 0x56000054

3000111c <entry>:
3000111c:	e92d4800 	push	{fp, lr}
30001120:	e28db004 	add	fp, sp, #4
30001124:	ebffff99 	bl	30000f90 <led_init>
30001128:	ebfffdda 	bl	30000898 <clock_init>
3000112c:	eb0006e3 	bl	30002cc0 <uart_init>
30001130:	ebffff1e 	bl	30000db0 <lcd_init>
30001134:	e59f0008 	ldr	r0, [pc, #8]	; 30001144 <entry+0x28>
30001138:	eb00072b 	bl	30002dec <print>
3000113c:	eb000001 	bl	30001148 <main>
30001140:	eafffffd 	b	3000113c <entry+0x20>
30001144:	300055bc 			; <UNDEFINED> instruction: 0x300055bc

30001148 <main>:
30001148:	e92d4800 	push	{fp, lr}
3000114c:	e28db004 	add	fp, sp, #4
30001150:	ebfffc85 	bl	3000036c <cmd_excute>
30001154:	e24bd004 	sub	sp, fp, #4
30001158:	e8bd4800 	pop	{fp, lr}
3000115c:	e12fff1e 	bx	lr

30001160 <nand_test>:
30001160:	e92d4800 	push	{fp, lr}
30001164:	e28db004 	add	fp, sp, #4
30001168:	e24dd008 	sub	sp, sp, #8
3000116c:	eb0000fb 	bl	30001560 <nand_init>
30001170:	e3a03000 	mov	r3, #0
30001174:	e50b3008 	str	r3, [fp, #-8]
30001178:	ea000007 	b	3000119c <nand_test+0x3c>
3000117c:	e59f2290 	ldr	r2, [pc, #656]	; 30001414 <nand_test+0x2b4>
30001180:	e51b3008 	ldr	r3, [fp, #-8]
30001184:	e0823003 	add	r3, r2, r3
30001188:	e3a02033 	mov	r2, #51	; 0x33
3000118c:	e5c32000 	strb	r2, [r3]
30001190:	e51b3008 	ldr	r3, [fp, #-8]
30001194:	e2833001 	add	r3, r3, #1
30001198:	e50b3008 	str	r3, [fp, #-8]
3000119c:	e51b3008 	ldr	r3, [fp, #-8]
300011a0:	e3530b06 	cmp	r3, #6144	; 0x1800
300011a4:	bafffff4 	blt	3000117c <nand_test+0x1c>
300011a8:	e3a03000 	mov	r3, #0
300011ac:	e50b3008 	str	r3, [fp, #-8]
300011b0:	ea000007 	b	300011d4 <nand_test+0x74>
300011b4:	e59f225c 	ldr	r2, [pc, #604]	; 30001418 <nand_test+0x2b8>
300011b8:	e51b3008 	ldr	r3, [fp, #-8]
300011bc:	e0823003 	add	r3, r2, r3
300011c0:	e3a02000 	mov	r2, #0
300011c4:	e5c32000 	strb	r2, [r3]
300011c8:	e51b3008 	ldr	r3, [fp, #-8]
300011cc:	e2833001 	add	r3, r3, #1
300011d0:	e50b3008 	str	r3, [fp, #-8]
300011d4:	e51b3008 	ldr	r3, [fp, #-8]
300011d8:	e3530b06 	cmp	r3, #6144	; 0x1800
300011dc:	bafffff4 	blt	300011b4 <nand_test+0x54>
300011e0:	e59f0234 	ldr	r0, [pc, #564]	; 3000141c <nand_test+0x2bc>
300011e4:	eb0002fd 	bl	30001de0 <printf>
300011e8:	e59f0230 	ldr	r0, [pc, #560]	; 30001420 <nand_test+0x2c0>
300011ec:	eb000097 	bl	30001450 <read_id>
300011f0:	e59f022c 	ldr	r0, [pc, #556]	; 30001424 <nand_test+0x2c4>
300011f4:	eb0006fc 	bl	30002dec <print>
300011f8:	e3a0000a 	mov	r0, #10
300011fc:	e3a01014 	mov	r1, #20
30001200:	e3a02001 	mov	r2, #1
30001204:	eb0001f1 	bl	300019d0 <addr_maker>
30001208:	e50b000c 	str	r0, [fp, #-12]
3000120c:	e51b000c 	ldr	r0, [fp, #-12]
30001210:	e59f1210 	ldr	r1, [pc, #528]	; 30001428 <nand_test+0x2c8>
30001214:	e59f21fc 	ldr	r2, [pc, #508]	; 30001418 <nand_test+0x2b8>
30001218:	eb000205 	bl	30001a34 <nand_read>
3000121c:	e3a03000 	mov	r3, #0
30001220:	e50b3008 	str	r3, [fp, #-8]
30001224:	ea000015 	b	30001280 <nand_test+0x120>
30001228:	e51b1008 	ldr	r1, [fp, #-8]
3000122c:	e59f31f8 	ldr	r3, [pc, #504]	; 3000142c <nand_test+0x2cc>
30001230:	e0c32391 	smull	r2, r3, r1, r3
30001234:	e1a020c3 	asr	r2, r3, #1
30001238:	e1a03fc1 	asr	r3, r1, #31
3000123c:	e0632002 	rsb	r2, r3, r2
30001240:	e1a03002 	mov	r3, r2
30001244:	e1a03103 	lsl	r3, r3, #2
30001248:	e0833002 	add	r3, r3, r2
3000124c:	e0632001 	rsb	r2, r3, r1
30001250:	e3520000 	cmp	r2, #0
30001254:	1a000006 	bne	30001274 <nand_test+0x114>
30001258:	e59f21b8 	ldr	r2, [pc, #440]	; 30001418 <nand_test+0x2b8>
3000125c:	e51b3008 	ldr	r3, [fp, #-8]
30001260:	e0823003 	add	r3, r2, r3
30001264:	e5d33000 	ldrb	r3, [r3]
30001268:	e59f01c0 	ldr	r0, [pc, #448]	; 30001430 <nand_test+0x2d0>
3000126c:	e1a01003 	mov	r1, r3
30001270:	eb0002da 	bl	30001de0 <printf>
30001274:	e51b3008 	ldr	r3, [fp, #-8]
30001278:	e2833001 	add	r3, r3, #1
3000127c:	e50b3008 	str	r3, [fp, #-8]
30001280:	e51b3008 	ldr	r3, [fp, #-8]
30001284:	e3530b06 	cmp	r3, #6144	; 0x1800
30001288:	baffffe6 	blt	30001228 <nand_test+0xc8>
3000128c:	e59f01a0 	ldr	r0, [pc, #416]	; 30001434 <nand_test+0x2d4>
30001290:	eb0002d2 	bl	30001de0 <printf>
30001294:	e51b300c 	ldr	r3, [fp, #-12]
30001298:	e1a00003 	mov	r0, r3
3000129c:	eb0002a8 	bl	30001d44 <block_erase>
300012a0:	e59f0190 	ldr	r0, [pc, #400]	; 30001438 <nand_test+0x2d8>
300012a4:	eb0002cd 	bl	30001de0 <printf>
300012a8:	e51b000c 	ldr	r0, [fp, #-12]
300012ac:	e3a01b06 	mov	r1, #6144	; 0x1800
300012b0:	e59f2160 	ldr	r2, [pc, #352]	; 30001418 <nand_test+0x2b8>
300012b4:	eb0001de 	bl	30001a34 <nand_read>
300012b8:	e3a03000 	mov	r3, #0
300012bc:	e50b3008 	str	r3, [fp, #-8]
300012c0:	ea000015 	b	3000131c <nand_test+0x1bc>
300012c4:	e51b1008 	ldr	r1, [fp, #-8]
300012c8:	e59f315c 	ldr	r3, [pc, #348]	; 3000142c <nand_test+0x2cc>
300012cc:	e0c32391 	smull	r2, r3, r1, r3
300012d0:	e1a020c3 	asr	r2, r3, #1
300012d4:	e1a03fc1 	asr	r3, r1, #31
300012d8:	e0632002 	rsb	r2, r3, r2
300012dc:	e1a03002 	mov	r3, r2
300012e0:	e1a03103 	lsl	r3, r3, #2
300012e4:	e0833002 	add	r3, r3, r2
300012e8:	e0632001 	rsb	r2, r3, r1
300012ec:	e3520000 	cmp	r2, #0
300012f0:	1a000006 	bne	30001310 <nand_test+0x1b0>
300012f4:	e59f211c 	ldr	r2, [pc, #284]	; 30001418 <nand_test+0x2b8>
300012f8:	e51b3008 	ldr	r3, [fp, #-8]
300012fc:	e0823003 	add	r3, r2, r3
30001300:	e5d33000 	ldrb	r3, [r3]
30001304:	e59f0130 	ldr	r0, [pc, #304]	; 3000143c <nand_test+0x2dc>
30001308:	e1a01003 	mov	r1, r3
3000130c:	eb0002b3 	bl	30001de0 <printf>
30001310:	e51b3008 	ldr	r3, [fp, #-8]
30001314:	e2833001 	add	r3, r3, #1
30001318:	e50b3008 	str	r3, [fp, #-8]
3000131c:	e51b3008 	ldr	r3, [fp, #-8]
30001320:	e3530b06 	cmp	r3, #6144	; 0x1800
30001324:	baffffe6 	blt	300012c4 <nand_test+0x164>
30001328:	e51b000c 	ldr	r0, [fp, #-12]
3000132c:	e3a01b06 	mov	r1, #6144	; 0x1800
30001330:	e59f20dc 	ldr	r2, [pc, #220]	; 30001414 <nand_test+0x2b4>
30001334:	eb000222 	bl	30001bc4 <nand_write>
30001338:	e59f0100 	ldr	r0, [pc, #256]	; 30001440 <nand_test+0x2e0>
3000133c:	eb0006aa 	bl	30002dec <print>
30001340:	e51b000c 	ldr	r0, [fp, #-12]
30001344:	e3a01b06 	mov	r1, #6144	; 0x1800
30001348:	e59f20c8 	ldr	r2, [pc, #200]	; 30001418 <nand_test+0x2b8>
3000134c:	eb0001b8 	bl	30001a34 <nand_read>
30001350:	e3a03000 	mov	r3, #0
30001354:	e50b3008 	str	r3, [fp, #-8]
30001358:	ea000015 	b	300013b4 <nand_test+0x254>
3000135c:	e51b1008 	ldr	r1, [fp, #-8]
30001360:	e59f30c4 	ldr	r3, [pc, #196]	; 3000142c <nand_test+0x2cc>
30001364:	e0c32391 	smull	r2, r3, r1, r3
30001368:	e1a020c3 	asr	r2, r3, #1
3000136c:	e1a03fc1 	asr	r3, r1, #31
30001370:	e0632002 	rsb	r2, r3, r2
30001374:	e1a03002 	mov	r3, r2
30001378:	e1a03103 	lsl	r3, r3, #2
3000137c:	e0833002 	add	r3, r3, r2
30001380:	e0632001 	rsb	r2, r3, r1
30001384:	e3520000 	cmp	r2, #0
30001388:	1a000006 	bne	300013a8 <nand_test+0x248>
3000138c:	e59f2084 	ldr	r2, [pc, #132]	; 30001418 <nand_test+0x2b8>
30001390:	e51b3008 	ldr	r3, [fp, #-8]
30001394:	e0823003 	add	r3, r2, r3
30001398:	e5d33000 	ldrb	r3, [r3]
3000139c:	e59f00a0 	ldr	r0, [pc, #160]	; 30001444 <nand_test+0x2e4>
300013a0:	e1a01003 	mov	r1, r3
300013a4:	eb00028d 	bl	30001de0 <printf>
300013a8:	e51b3008 	ldr	r3, [fp, #-8]
300013ac:	e2833001 	add	r3, r3, #1
300013b0:	e50b3008 	str	r3, [fp, #-8]
300013b4:	e51b3008 	ldr	r3, [fp, #-8]
300013b8:	e3530b06 	cmp	r3, #6144	; 0x1800
300013bc:	baffffe6 	blt	3000135c <nand_test+0x1fc>
300013c0:	e59f0080 	ldr	r0, [pc, #128]	; 30001448 <nand_test+0x2e8>
300013c4:	eb000285 	bl	30001de0 <printf>
300013c8:	e3a03000 	mov	r3, #0
300013cc:	e50b3008 	str	r3, [fp, #-8]
300013d0:	ea000009 	b	300013fc <nand_test+0x29c>
300013d4:	e59f2044 	ldr	r2, [pc, #68]	; 30001420 <nand_test+0x2c0>
300013d8:	e51b3008 	ldr	r3, [fp, #-8]
300013dc:	e0823003 	add	r3, r2, r3
300013e0:	e5d33000 	ldrb	r3, [r3]
300013e4:	e59f0060 	ldr	r0, [pc, #96]	; 3000144c <nand_test+0x2ec>
300013e8:	e1a01003 	mov	r1, r3
300013ec:	eb00027b 	bl	30001de0 <printf>
300013f0:	e51b3008 	ldr	r3, [fp, #-8]
300013f4:	e2833001 	add	r3, r3, #1
300013f8:	e50b3008 	str	r3, [fp, #-8]
300013fc:	e51b3008 	ldr	r3, [fp, #-8]
30001400:	e3530004 	cmp	r3, #4
30001404:	dafffff2 	ble	300013d4 <nand_test+0x274>
30001408:	e24bd004 	sub	sp, fp, #4
3000140c:	e8bd4800 	pop	{fp, lr}
30001410:	e12fff1e 	bx	lr
30001414:	30006fe0 	andcc	r6, r0, r0, ror #31
30001418:	300057d8 	ldrdcc	r5, [r0], -r8
3000141c:	300055c4 	andcc	r5, r0, r4, asr #11
30001420:	300087e0 	andcc	r8, r0, r0, ror #15
30001424:	300055d4 	ldrdcc	r5, [r0], -r4
30001428:	00001001 	andeq	r1, r0, r1
3000142c:	66666667 	strbtvs	r6, [r6], -r7, ror #12
30001430:	300055e0 	andcc	r5, r0, r0, ror #11
30001434:	300055e8 	andcc	r5, r0, r8, ror #11
30001438:	300055f4 	strdcc	r5, [r0], -r4
3000143c:	30005600 	andcc	r5, r0, r0, lsl #12
30001440:	30005604 	andcc	r5, r0, r4, lsl #12
30001444:	30005610 	andcc	r5, r0, r0, lsl r6
30001448:	30005618 	andcc	r5, r0, r8, lsl r6
3000144c:	30005634 	andcc	r5, r0, r4, lsr r6

30001450 <read_id>:
30001450:	e92d4810 	push	{r4, fp, lr}
30001454:	e28db008 	add	fp, sp, #8
30001458:	e24dd014 	sub	sp, sp, #20
3000145c:	e50b0018 	str	r0, [fp, #-24]	; 0xffffffe8
30001460:	e59f30ec 	ldr	r3, [pc, #236]	; 30001554 <read_id+0x104>
30001464:	e5933004 	ldr	r3, [r3, #4]
30001468:	e1a0e00f 	mov	lr, pc
3000146c:	e12fff13 	bx	r3
30001470:	e59f30dc 	ldr	r3, [pc, #220]	; 30001554 <read_id+0x104>
30001474:	e593300c 	ldr	r3, [r3, #12]
30001478:	e3a00090 	mov	r0, #144	; 0x90
3000147c:	e1a0e00f 	mov	lr, pc
30001480:	e12fff13 	bx	r3
30001484:	e59f30cc 	ldr	r3, [pc, #204]	; 30001558 <read_id+0x108>
30001488:	e5933000 	ldr	r3, [r3]
3000148c:	e3a02000 	mov	r2, #0
30001490:	e583200c 	str	r2, [r3, #12]
30001494:	eb0000e1 	bl	30001820 <read_byte>
30001498:	e1a03000 	mov	r3, r0
3000149c:	e1a02003 	mov	r2, r3
300014a0:	e51b3018 	ldr	r3, [fp, #-24]	; 0xffffffe8
300014a4:	e5c32000 	strb	r2, [r3]
300014a8:	e51b3018 	ldr	r3, [fp, #-24]	; 0xffffffe8
300014ac:	e2834001 	add	r4, r3, #1
300014b0:	eb0000da 	bl	30001820 <read_byte>
300014b4:	e1a03000 	mov	r3, r0
300014b8:	e5c43000 	strb	r3, [r4]
300014bc:	e51b3018 	ldr	r3, [fp, #-24]	; 0xffffffe8
300014c0:	e2834002 	add	r4, r3, #2
300014c4:	eb0000d5 	bl	30001820 <read_byte>
300014c8:	e1a03000 	mov	r3, r0
300014cc:	e5c43000 	strb	r3, [r4]
300014d0:	e51b3018 	ldr	r3, [fp, #-24]	; 0xffffffe8
300014d4:	e2834003 	add	r4, r3, #3
300014d8:	eb0000d0 	bl	30001820 <read_byte>
300014dc:	e1a03000 	mov	r3, r0
300014e0:	e5c43000 	strb	r3, [r4]
300014e4:	e51b3018 	ldr	r3, [fp, #-24]	; 0xffffffe8
300014e8:	e2834004 	add	r4, r3, #4
300014ec:	eb0000cb 	bl	30001820 <read_byte>
300014f0:	e1a03000 	mov	r3, r0
300014f4:	e5c43000 	strb	r3, [r4]
300014f8:	e3a03000 	mov	r3, #0
300014fc:	e50b3010 	str	r3, [fp, #-16]
30001500:	ea000009 	b	3000152c <read_id+0xdc>
30001504:	e51b3010 	ldr	r3, [fp, #-16]
30001508:	e51b2018 	ldr	r2, [fp, #-24]	; 0xffffffe8
3000150c:	e0823003 	add	r3, r2, r3
30001510:	e5d33000 	ldrb	r3, [r3]
30001514:	e59f0040 	ldr	r0, [pc, #64]	; 3000155c <read_id+0x10c>
30001518:	e1a01003 	mov	r1, r3
3000151c:	eb00022f 	bl	30001de0 <printf>
30001520:	e51b3010 	ldr	r3, [fp, #-16]
30001524:	e2833001 	add	r3, r3, #1
30001528:	e50b3010 	str	r3, [fp, #-16]
3000152c:	e51b3010 	ldr	r3, [fp, #-16]
30001530:	e3530004 	cmp	r3, #4
30001534:	dafffff2 	ble	30001504 <read_id+0xb4>
30001538:	e59f3014 	ldr	r3, [pc, #20]	; 30001554 <read_id+0x104>
3000153c:	e5933008 	ldr	r3, [r3, #8]
30001540:	e1a0e00f 	mov	lr, pc
30001544:	e12fff13 	bx	r3
30001548:	e24bd008 	sub	sp, fp, #8
3000154c:	e8bd4810 	pop	{r4, fp, lr}
30001550:	e12fff1e 	bx	lr
30001554:	30009018 	andcc	r9, r0, r8, lsl r0
30001558:	300057d4 	ldrdcc	r5, [r0], -r4
3000155c:	3000563c 	andcc	r5, r0, ip, lsr r6

30001560 <nand_init>:
30001560:	e92d4800 	push	{fp, lr}
30001564:	e28db004 	add	fp, sp, #4
30001568:	e59f30a0 	ldr	r3, [pc, #160]	; 30001610 <nand_init+0xb0>
3000156c:	e59f20a0 	ldr	r2, [pc, #160]	; 30001614 <nand_init+0xb4>
30001570:	e5832000 	str	r2, [r3]
30001574:	e59f3094 	ldr	r3, [pc, #148]	; 30001610 <nand_init+0xb0>
30001578:	e59f2098 	ldr	r2, [pc, #152]	; 30001618 <nand_init+0xb8>
3000157c:	e5832004 	str	r2, [r3, #4]
30001580:	e59f3088 	ldr	r3, [pc, #136]	; 30001610 <nand_init+0xb0>
30001584:	e59f2090 	ldr	r2, [pc, #144]	; 3000161c <nand_init+0xbc>
30001588:	e5832008 	str	r2, [r3, #8]
3000158c:	e59f307c 	ldr	r3, [pc, #124]	; 30001610 <nand_init+0xb0>
30001590:	e59f2088 	ldr	r2, [pc, #136]	; 30001620 <nand_init+0xc0>
30001594:	e583200c 	str	r2, [r3, #12]
30001598:	e59f3070 	ldr	r3, [pc, #112]	; 30001610 <nand_init+0xb0>
3000159c:	e59f2080 	ldr	r2, [pc, #128]	; 30001624 <nand_init+0xc4>
300015a0:	e5832010 	str	r2, [r3, #16]
300015a4:	e59f3064 	ldr	r3, [pc, #100]	; 30001610 <nand_init+0xb0>
300015a8:	e59f2078 	ldr	r2, [pc, #120]	; 30001628 <nand_init+0xc8>
300015ac:	e583201c 	str	r2, [r3, #28]
300015b0:	e59f3058 	ldr	r3, [pc, #88]	; 30001610 <nand_init+0xb0>
300015b4:	e59f2070 	ldr	r2, [pc, #112]	; 3000162c <nand_init+0xcc>
300015b8:	e5832014 	str	r2, [r3, #20]
300015bc:	e59f304c 	ldr	r3, [pc, #76]	; 30001610 <nand_init+0xb0>
300015c0:	e59f2068 	ldr	r2, [pc, #104]	; 30001630 <nand_init+0xd0>
300015c4:	e5832018 	str	r2, [r3, #24]
300015c8:	e59f3040 	ldr	r3, [pc, #64]	; 30001610 <nand_init+0xb0>
300015cc:	e59f2060 	ldr	r2, [pc, #96]	; 30001634 <nand_init+0xd4>
300015d0:	e5832020 	str	r2, [r3, #32]
300015d4:	e59f005c 	ldr	r0, [pc, #92]	; 30001638 <nand_init+0xd8>
300015d8:	eb000603 	bl	30002dec <print>
300015dc:	e59f3058 	ldr	r3, [pc, #88]	; 3000163c <nand_init+0xdc>
300015e0:	e5933000 	ldr	r3, [r3]
300015e4:	e3a02c13 	mov	r2, #4864	; 0x1300
300015e8:	e5832000 	str	r2, [r3]
300015ec:	e59f3048 	ldr	r3, [pc, #72]	; 3000163c <nand_init+0xdc>
300015f0:	e5933000 	ldr	r3, [r3]
300015f4:	e3a02013 	mov	r2, #19
300015f8:	e5832004 	str	r2, [r3, #4]
300015fc:	e59f003c 	ldr	r0, [pc, #60]	; 30001640 <nand_init+0xe0>
30001600:	eb0005f9 	bl	30002dec <print>
30001604:	e24bd004 	sub	sp, fp, #4
30001608:	e8bd4800 	pop	{fp, lr}
3000160c:	e12fff1e 	bx	lr
30001610:	30009018 	andcc	r9, r0, r8, lsl r0
30001614:	30001644 	andcc	r1, r0, r4, asr #12
30001618:	300016a0 	andcc	r1, r0, r0, lsr #13
3000161c:	300016d4 	ldrdcc	r1, [r0], -r4
30001620:	30001708 	andcc	r1, r0, r8, lsl #14
30001624:	3000176c 	andcc	r1, r0, ip, ror #14
30001628:	300019d0 	ldrdcc	r1, [r0], -r0
3000162c:	30001820 	andcc	r1, r0, r0, lsr #16
30001630:	300017e0 	andcc	r1, r0, r0, ror #15
30001634:	30001860 	andcc	r1, r0, r0, ror #16
30001638:	30005640 	andcc	r5, r0, r0, asr #12
3000163c:	300057d4 	ldrdcc	r5, [r0], -r4
30001640:	30005650 	andcc	r5, r0, r0, asr r6

30001644 <nand_reset>:
30001644:	e92d4800 	push	{fp, lr}
30001648:	e28db004 	add	fp, sp, #4
3000164c:	e59f3048 	ldr	r3, [pc, #72]	; 3000169c <nand_reset+0x58>
30001650:	e5933004 	ldr	r3, [r3, #4]
30001654:	e1a0e00f 	mov	lr, pc
30001658:	e12fff13 	bx	r3
3000165c:	e59f3038 	ldr	r3, [pc, #56]	; 3000169c <nand_reset+0x58>
30001660:	e5933010 	ldr	r3, [r3, #16]
30001664:	e1a0e00f 	mov	lr, pc
30001668:	e12fff13 	bx	r3
3000166c:	e59f3028 	ldr	r3, [pc, #40]	; 3000169c <nand_reset+0x58>
30001670:	e593300c 	ldr	r3, [r3, #12]
30001674:	e3a000ff 	mov	r0, #255	; 0xff
30001678:	e1a0e00f 	mov	lr, pc
3000167c:	e12fff13 	bx	r3
30001680:	e59f3014 	ldr	r3, [pc, #20]	; 3000169c <nand_reset+0x58>
30001684:	e5933008 	ldr	r3, [r3, #8]
30001688:	e1a0e00f 	mov	lr, pc
3000168c:	e12fff13 	bx	r3
30001690:	e24bd004 	sub	sp, fp, #4
30001694:	e8bd4800 	pop	{fp, lr}
30001698:	e12fff1e 	bx	lr
3000169c:	30009018 	andcc	r9, r0, r8, lsl r0

300016a0 <nand_chip_select>:
300016a0:	e52db004 	push	{fp}		; (str fp, [sp, #-4]!)
300016a4:	e28db000 	add	fp, sp, #0
300016a8:	e59f3020 	ldr	r3, [pc, #32]	; 300016d0 <nand_chip_select+0x30>
300016ac:	e5933000 	ldr	r3, [r3]
300016b0:	e59f2018 	ldr	r2, [pc, #24]	; 300016d0 <nand_chip_select+0x30>
300016b4:	e5922000 	ldr	r2, [r2]
300016b8:	e5922004 	ldr	r2, [r2, #4]
300016bc:	e3c22002 	bic	r2, r2, #2
300016c0:	e5832004 	str	r2, [r3, #4]
300016c4:	e24bd000 	sub	sp, fp, #0
300016c8:	e49db004 	pop	{fp}		; (ldr fp, [sp], #4)
300016cc:	e12fff1e 	bx	lr
300016d0:	300057d4 	ldrdcc	r5, [r0], -r4

300016d4 <nand_chip_disselect>:
300016d4:	e52db004 	push	{fp}		; (str fp, [sp, #-4]!)
300016d8:	e28db000 	add	fp, sp, #0
300016dc:	e59f3020 	ldr	r3, [pc, #32]	; 30001704 <nand_chip_disselect+0x30>
300016e0:	e5933000 	ldr	r3, [r3]
300016e4:	e59f2018 	ldr	r2, [pc, #24]	; 30001704 <nand_chip_disselect+0x30>
300016e8:	e5922000 	ldr	r2, [r2]
300016ec:	e5922004 	ldr	r2, [r2, #4]
300016f0:	e3822002 	orr	r2, r2, #2
300016f4:	e5832004 	str	r2, [r3, #4]
300016f8:	e24bd000 	sub	sp, fp, #0
300016fc:	e49db004 	pop	{fp}		; (ldr fp, [sp], #4)
30001700:	e12fff1e 	bx	lr
30001704:	300057d4 	ldrdcc	r5, [r0], -r4

30001708 <nand_send_cmd>:
30001708:	e52db004 	push	{fp}		; (str fp, [sp, #-4]!)
3000170c:	e28db000 	add	fp, sp, #0
30001710:	e24dd014 	sub	sp, sp, #20
30001714:	e50b0010 	str	r0, [fp, #-16]
30001718:	e59f3048 	ldr	r3, [pc, #72]	; 30001768 <nand_send_cmd+0x60>
3000171c:	e5933000 	ldr	r3, [r3]
30001720:	e2833008 	add	r3, r3, #8
30001724:	e50b300c 	str	r3, [fp, #-12]
30001728:	e51b3010 	ldr	r3, [fp, #-16]
3000172c:	e20320ff 	and	r2, r3, #255	; 0xff
30001730:	e51b300c 	ldr	r3, [fp, #-12]
30001734:	e5c32000 	strb	r2, [r3]
30001738:	e3a03000 	mov	r3, #0
3000173c:	e50b3008 	str	r3, [fp, #-8]
30001740:	ea000002 	b	30001750 <nand_send_cmd+0x48>
30001744:	e51b3008 	ldr	r3, [fp, #-8]
30001748:	e2833001 	add	r3, r3, #1
3000174c:	e50b3008 	str	r3, [fp, #-8]
30001750:	e51b3008 	ldr	r3, [fp, #-8]
30001754:	e3530009 	cmp	r3, #9
30001758:	dafffff9 	ble	30001744 <nand_send_cmd+0x3c>
3000175c:	e24bd000 	sub	sp, fp, #0
30001760:	e49db004 	pop	{fp}		; (ldr fp, [sp], #4)
30001764:	e12fff1e 	bx	lr
30001768:	300057d4 	ldrdcc	r5, [r0], -r4

3000176c <nand_wait_finsh>:
3000176c:	e52db004 	push	{fp}		; (str fp, [sp, #-4]!)
30001770:	e28db000 	add	fp, sp, #0
30001774:	e24dd00c 	sub	sp, sp, #12
30001778:	e59f305c 	ldr	r3, [pc, #92]	; 300017dc <nand_wait_finsh+0x70>
3000177c:	e5933000 	ldr	r3, [r3]
30001780:	e2833020 	add	r3, r3, #32
30001784:	e50b300c 	str	r3, [fp, #-12]
30001788:	e3a0300a 	mov	r3, #10
3000178c:	e50b3008 	str	r3, [fp, #-8]
30001790:	ea000008 	b	300017b8 <nand_wait_finsh+0x4c>
30001794:	e3a0300a 	mov	r3, #10
30001798:	e50b3008 	str	r3, [fp, #-8]
3000179c:	ea000002 	b	300017ac <nand_wait_finsh+0x40>
300017a0:	e51b3008 	ldr	r3, [fp, #-8]
300017a4:	e2433001 	sub	r3, r3, #1
300017a8:	e50b3008 	str	r3, [fp, #-8]
300017ac:	e51b3008 	ldr	r3, [fp, #-8]
300017b0:	e3530000 	cmp	r3, #0
300017b4:	cafffff9 	bgt	300017a0 <nand_wait_finsh+0x34>
300017b8:	e51b300c 	ldr	r3, [fp, #-12]
300017bc:	e5d33000 	ldrb	r3, [r3]
300017c0:	e20330ff 	and	r3, r3, #255	; 0xff
300017c4:	e2033001 	and	r3, r3, #1
300017c8:	e3530000 	cmp	r3, #0
300017cc:	0afffff0 	beq	30001794 <nand_wait_finsh+0x28>
300017d0:	e24bd000 	sub	sp, fp, #0
300017d4:	e49db004 	pop	{fp}		; (ldr fp, [sp], #4)
300017d8:	e12fff1e 	bx	lr
300017dc:	300057d4 	ldrdcc	r5, [r0], -r4

300017e0 <write_byte>:
300017e0:	e52db004 	push	{fp}		; (str fp, [sp, #-4]!)
300017e4:	e28db000 	add	fp, sp, #0
300017e8:	e24dd014 	sub	sp, sp, #20
300017ec:	e1a03000 	mov	r3, r0
300017f0:	e54b300d 	strb	r3, [fp, #-13]
300017f4:	e59f3020 	ldr	r3, [pc, #32]	; 3000181c <write_byte+0x3c>
300017f8:	e5933000 	ldr	r3, [r3]
300017fc:	e2833010 	add	r3, r3, #16
30001800:	e50b3008 	str	r3, [fp, #-8]
30001804:	e51b3008 	ldr	r3, [fp, #-8]
30001808:	e55b200d 	ldrb	r2, [fp, #-13]
3000180c:	e5c32000 	strb	r2, [r3]
30001810:	e24bd000 	sub	sp, fp, #0
30001814:	e49db004 	pop	{fp}		; (ldr fp, [sp], #4)
30001818:	e12fff1e 	bx	lr
3000181c:	300057d4 	ldrdcc	r5, [r0], -r4

30001820 <read_byte>:
30001820:	e52db004 	push	{fp}		; (str fp, [sp, #-4]!)
30001824:	e28db000 	add	fp, sp, #0
30001828:	e24dd00c 	sub	sp, sp, #12
3000182c:	e59f3028 	ldr	r3, [pc, #40]	; 3000185c <read_byte+0x3c>
30001830:	e5933000 	ldr	r3, [r3]
30001834:	e2833010 	add	r3, r3, #16
30001838:	e50b3008 	str	r3, [fp, #-8]
3000183c:	e51b3008 	ldr	r3, [fp, #-8]
30001840:	e5d33000 	ldrb	r3, [r3]
30001844:	e54b3009 	strb	r3, [fp, #-9]
30001848:	e55b3009 	ldrb	r3, [fp, #-9]
3000184c:	e1a00003 	mov	r0, r3
30001850:	e24bd000 	sub	sp, fp, #0
30001854:	e49db004 	pop	{fp}		; (ldr fp, [sp], #4)
30001858:	e12fff1e 	bx	lr
3000185c:	300057d4 	ldrdcc	r5, [r0], -r4

30001860 <send_addr>:
30001860:	e52db004 	push	{fp}		; (str fp, [sp, #-4]!)
30001864:	e28db000 	add	fp, sp, #0
30001868:	e24dd014 	sub	sp, sp, #20
3000186c:	e50b0010 	str	r0, [fp, #-16]
30001870:	e1a03001 	mov	r3, r1
30001874:	e54b3011 	strb	r3, [fp, #-17]	; 0xffffffef
30001878:	e59f314c 	ldr	r3, [pc, #332]	; 300019cc <send_addr+0x16c>
3000187c:	e5933000 	ldr	r3, [r3]
30001880:	e283300c 	add	r3, r3, #12
30001884:	e50b300c 	str	r3, [fp, #-12]
30001888:	e55b3011 	ldrb	r3, [fp, #-17]	; 0xffffffef
3000188c:	e3530005 	cmp	r3, #5
30001890:	0a000002 	beq	300018a0 <send_addr+0x40>
30001894:	e55b3011 	ldrb	r3, [fp, #-17]	; 0xffffffef
30001898:	e3530002 	cmp	r3, #2
3000189c:	1a00001e 	bne	3000191c <send_addr+0xbc>
300018a0:	e51b3010 	ldr	r3, [fp, #-16]
300018a4:	e20320ff 	and	r2, r3, #255	; 0xff
300018a8:	e51b300c 	ldr	r3, [fp, #-12]
300018ac:	e5c32000 	strb	r2, [r3]
300018b0:	e3a0300a 	mov	r3, #10
300018b4:	e50b3008 	str	r3, [fp, #-8]
300018b8:	e1a00000 	nop			; (mov r0, r0)
300018bc:	e51b3008 	ldr	r3, [fp, #-8]
300018c0:	e2432001 	sub	r2, r3, #1
300018c4:	e50b2008 	str	r2, [fp, #-8]
300018c8:	e3530000 	cmp	r3, #0
300018cc:	1afffffa 	bne	300018bc <send_addr+0x5c>
300018d0:	e51b3010 	ldr	r3, [fp, #-16]
300018d4:	e1a03423 	lsr	r3, r3, #8
300018d8:	e20330ff 	and	r3, r3, #255	; 0xff
300018dc:	e203300f 	and	r3, r3, #15
300018e0:	e20320ff 	and	r2, r3, #255	; 0xff
300018e4:	e51b300c 	ldr	r3, [fp, #-12]
300018e8:	e5c32000 	strb	r2, [r3]
300018ec:	e3a0300a 	mov	r3, #10
300018f0:	e50b3008 	str	r3, [fp, #-8]
300018f4:	e1a00000 	nop			; (mov r0, r0)
300018f8:	e51b3008 	ldr	r3, [fp, #-8]
300018fc:	e2432001 	sub	r2, r3, #1
30001900:	e50b2008 	str	r2, [fp, #-8]
30001904:	e3530000 	cmp	r3, #0
30001908:	1afffffa 	bne	300018f8 <send_addr+0x98>
3000190c:	e55b3011 	ldrb	r3, [fp, #-17]	; 0xffffffef
30001910:	e3530002 	cmp	r3, #2
30001914:	1a000000 	bne	3000191c <send_addr+0xbc>
30001918:	ea000028 	b	300019c0 <send_addr+0x160>
3000191c:	e51b3010 	ldr	r3, [fp, #-16]
30001920:	e1a03623 	lsr	r3, r3, #12
30001924:	e20320ff 	and	r2, r3, #255	; 0xff
30001928:	e51b300c 	ldr	r3, [fp, #-12]
3000192c:	e5c32000 	strb	r2, [r3]
30001930:	e3a0300a 	mov	r3, #10
30001934:	e50b3008 	str	r3, [fp, #-8]
30001938:	e1a00000 	nop			; (mov r0, r0)
3000193c:	e51b3008 	ldr	r3, [fp, #-8]
30001940:	e2432001 	sub	r2, r3, #1
30001944:	e50b2008 	str	r2, [fp, #-8]
30001948:	e3530000 	cmp	r3, #0
3000194c:	1afffffa 	bne	3000193c <send_addr+0xdc>
30001950:	e51b3010 	ldr	r3, [fp, #-16]
30001954:	e1a03a23 	lsr	r3, r3, #20
30001958:	e20320ff 	and	r2, r3, #255	; 0xff
3000195c:	e51b300c 	ldr	r3, [fp, #-12]
30001960:	e5c32000 	strb	r2, [r3]
30001964:	e3a0300a 	mov	r3, #10
30001968:	e50b3008 	str	r3, [fp, #-8]
3000196c:	e1a00000 	nop			; (mov r0, r0)
30001970:	e51b3008 	ldr	r3, [fp, #-8]
30001974:	e2432001 	sub	r2, r3, #1
30001978:	e50b2008 	str	r2, [fp, #-8]
3000197c:	e3530000 	cmp	r3, #0
30001980:	1afffffa 	bne	30001970 <send_addr+0x110>
30001984:	e51b3010 	ldr	r3, [fp, #-16]
30001988:	e1a03e23 	lsr	r3, r3, #28
3000198c:	e20330ff 	and	r3, r3, #255	; 0xff
30001990:	e2033001 	and	r3, r3, #1
30001994:	e20320ff 	and	r2, r3, #255	; 0xff
30001998:	e51b300c 	ldr	r3, [fp, #-12]
3000199c:	e5c32000 	strb	r2, [r3]
300019a0:	e3a0300a 	mov	r3, #10
300019a4:	e50b3008 	str	r3, [fp, #-8]
300019a8:	e1a00000 	nop			; (mov r0, r0)
300019ac:	e51b3008 	ldr	r3, [fp, #-8]
300019b0:	e2432001 	sub	r2, r3, #1
300019b4:	e50b2008 	str	r2, [fp, #-8]
300019b8:	e3530000 	cmp	r3, #0
300019bc:	1afffffa 	bne	300019ac <send_addr+0x14c>
300019c0:	e24bd000 	sub	sp, fp, #0
300019c4:	e49db004 	pop	{fp}		; (ldr fp, [sp], #4)
300019c8:	e12fff1e 	bx	lr
300019cc:	300057d4 	ldrdcc	r5, [r0], -r4

300019d0 <addr_maker>:
300019d0:	e52db004 	push	{fp}		; (str fp, [sp, #-4]!)
300019d4:	e28db000 	add	fp, sp, #0
300019d8:	e24dd024 	sub	sp, sp, #36	; 0x24
300019dc:	e50b0018 	str	r0, [fp, #-24]	; 0xffffffe8
300019e0:	e50b101c 	str	r1, [fp, #-28]	; 0xffffffe4
300019e4:	e50b2020 	str	r2, [fp, #-32]	; 0xffffffe0
300019e8:	e51b3020 	ldr	r3, [fp, #-32]	; 0xffffffe0
300019ec:	e1a03a03 	lsl	r3, r3, #20
300019f0:	e1a03a23 	lsr	r3, r3, #20
300019f4:	e50b3008 	str	r3, [fp, #-8]
300019f8:	e51b3018 	ldr	r3, [fp, #-24]	; 0xffffffe8
300019fc:	e1a02903 	lsl	r2, r3, #18
30001a00:	e51b301c 	ldr	r3, [fp, #-28]	; 0xffffffe4
30001a04:	e1a03603 	lsl	r3, r3, #12
30001a08:	e1823003 	orr	r3, r2, r3
30001a0c:	e50b300c 	str	r3, [fp, #-12]
30001a10:	e51b2008 	ldr	r2, [fp, #-8]
30001a14:	e51b300c 	ldr	r3, [fp, #-12]
30001a18:	e1823003 	orr	r3, r2, r3
30001a1c:	e50b3010 	str	r3, [fp, #-16]
30001a20:	e51b3010 	ldr	r3, [fp, #-16]
30001a24:	e1a00003 	mov	r0, r3
30001a28:	e24bd000 	sub	sp, fp, #0
30001a2c:	e49db004 	pop	{fp}		; (ldr fp, [sp], #4)
30001a30:	e12fff1e 	bx	lr

30001a34 <nand_read>:
30001a34:	e92d4810 	push	{r4, fp, lr}
30001a38:	e28db008 	add	fp, sp, #8
30001a3c:	e24dd024 	sub	sp, sp, #36	; 0x24
30001a40:	e50b0020 	str	r0, [fp, #-32]	; 0xffffffe0
30001a44:	e50b1024 	str	r1, [fp, #-36]	; 0xffffffdc
30001a48:	e50b2028 	str	r2, [fp, #-40]	; 0xffffffd8
30001a4c:	e3a03000 	mov	r3, #0
30001a50:	e50b3010 	str	r3, [fp, #-16]
30001a54:	e3a03000 	mov	r3, #0
30001a58:	e50b3014 	str	r3, [fp, #-20]	; 0xffffffec
30001a5c:	e51b3020 	ldr	r3, [fp, #-32]	; 0xffffffe0
30001a60:	e3c33eff 	bic	r3, r3, #4080	; 0xff0
30001a64:	e3c3300f 	bic	r3, r3, #15
30001a68:	e50b3020 	str	r3, [fp, #-32]	; 0xffffffe0
30001a6c:	e51b3024 	ldr	r3, [fp, #-36]	; 0xffffffdc
30001a70:	e1a03a83 	lsl	r3, r3, #21
30001a74:	e1a03aa3 	lsr	r3, r3, #21
30001a78:	e3530000 	cmp	r3, #0
30001a7c:	0a000004 	beq	30001a94 <nand_read+0x60>
30001a80:	e51b3024 	ldr	r3, [fp, #-36]	; 0xffffffdc
30001a84:	e1a035a3 	lsr	r3, r3, #11
30001a88:	e2833001 	add	r3, r3, #1
30001a8c:	e1a03583 	lsl	r3, r3, #11
30001a90:	e50b3024 	str	r3, [fp, #-36]	; 0xffffffdc
30001a94:	e51b3024 	ldr	r3, [fp, #-36]	; 0xffffffdc
30001a98:	e1a035a3 	lsr	r3, r3, #11
30001a9c:	e50b301c 	str	r3, [fp, #-28]	; 0xffffffe4
30001aa0:	e3a03000 	mov	r3, #0
30001aa4:	e50b3018 	str	r3, [fp, #-24]	; 0xffffffe8
30001aa8:	ea00003a 	b	30001b98 <nand_read+0x164>
30001aac:	e59f3108 	ldr	r3, [pc, #264]	; 30001bbc <nand_read+0x188>
30001ab0:	e5933004 	ldr	r3, [r3, #4]
30001ab4:	e1a0e00f 	mov	lr, pc
30001ab8:	e12fff13 	bx	r3
30001abc:	e59f30f8 	ldr	r3, [pc, #248]	; 30001bbc <nand_read+0x188>
30001ac0:	e593300c 	ldr	r3, [r3, #12]
30001ac4:	e3a00000 	mov	r0, #0
30001ac8:	e1a0e00f 	mov	lr, pc
30001acc:	e12fff13 	bx	r3
30001ad0:	e59f30e4 	ldr	r3, [pc, #228]	; 30001bbc <nand_read+0x188>
30001ad4:	e5933020 	ldr	r3, [r3, #32]
30001ad8:	e51b2018 	ldr	r2, [fp, #-24]	; 0xffffffe8
30001adc:	e1a02602 	lsl	r2, r2, #12
30001ae0:	e1a01002 	mov	r1, r2
30001ae4:	e51b2020 	ldr	r2, [fp, #-32]	; 0xffffffe0
30001ae8:	e0812002 	add	r2, r1, r2
30001aec:	e1a00002 	mov	r0, r2
30001af0:	e3a01005 	mov	r1, #5
30001af4:	e1a0e00f 	mov	lr, pc
30001af8:	e12fff13 	bx	r3
30001afc:	e59f00bc 	ldr	r0, [pc, #188]	; 30001bc0 <nand_read+0x18c>
30001b00:	eb0000b6 	bl	30001de0 <printf>
30001b04:	e59f30b0 	ldr	r3, [pc, #176]	; 30001bbc <nand_read+0x188>
30001b08:	e593300c 	ldr	r3, [r3, #12]
30001b0c:	e3a00030 	mov	r0, #48	; 0x30
30001b10:	e1a0e00f 	mov	lr, pc
30001b14:	e12fff13 	bx	r3
30001b18:	e59f309c 	ldr	r3, [pc, #156]	; 30001bbc <nand_read+0x188>
30001b1c:	e5933010 	ldr	r3, [r3, #16]
30001b20:	e1a0e00f 	mov	lr, pc
30001b24:	e12fff13 	bx	r3
30001b28:	e3a03000 	mov	r3, #0
30001b2c:	e50b3014 	str	r3, [fp, #-20]	; 0xffffffec
30001b30:	ea00000e 	b	30001b70 <nand_read+0x13c>
30001b34:	e51b2028 	ldr	r2, [fp, #-40]	; 0xffffffd8
30001b38:	e51b3010 	ldr	r3, [fp, #-16]
30001b3c:	e0824003 	add	r4, r2, r3
30001b40:	e59f3074 	ldr	r3, [pc, #116]	; 30001bbc <nand_read+0x188>
30001b44:	e5933014 	ldr	r3, [r3, #20]
30001b48:	e1a0e00f 	mov	lr, pc
30001b4c:	e12fff13 	bx	r3
30001b50:	e1a03000 	mov	r3, r0
30001b54:	e5c43000 	strb	r3, [r4]
30001b58:	e51b3014 	ldr	r3, [fp, #-20]	; 0xffffffec
30001b5c:	e2833001 	add	r3, r3, #1
30001b60:	e50b3014 	str	r3, [fp, #-20]	; 0xffffffec
30001b64:	e51b3010 	ldr	r3, [fp, #-16]
30001b68:	e2833001 	add	r3, r3, #1
30001b6c:	e50b3010 	str	r3, [fp, #-16]
30001b70:	e51b3014 	ldr	r3, [fp, #-20]	; 0xffffffec
30001b74:	e3530b02 	cmp	r3, #2048	; 0x800
30001b78:	3affffed 	bcc	30001b34 <nand_read+0x100>
30001b7c:	e59f3038 	ldr	r3, [pc, #56]	; 30001bbc <nand_read+0x188>
30001b80:	e5933008 	ldr	r3, [r3, #8]
30001b84:	e1a0e00f 	mov	lr, pc
30001b88:	e12fff13 	bx	r3
30001b8c:	e51b3018 	ldr	r3, [fp, #-24]	; 0xffffffe8
30001b90:	e2833001 	add	r3, r3, #1
30001b94:	e50b3018 	str	r3, [fp, #-24]	; 0xffffffe8
30001b98:	e51b2018 	ldr	r2, [fp, #-24]	; 0xffffffe8
30001b9c:	e51b301c 	ldr	r3, [fp, #-28]	; 0xffffffe4
30001ba0:	e1520003 	cmp	r2, r3
30001ba4:	baffffc0 	blt	30001aac <nand_read+0x78>
30001ba8:	e51b3010 	ldr	r3, [fp, #-16]
30001bac:	e1a00003 	mov	r0, r3
30001bb0:	e24bd008 	sub	sp, fp, #8
30001bb4:	e8bd4810 	pop	{r4, fp, lr}
30001bb8:	e12fff1e 	bx	lr
30001bbc:	30009018 	andcc	r9, r0, r8, lsl r0
30001bc0:	3000565c 	andcc	r5, r0, ip, asr r6

30001bc4 <nand_write>:
30001bc4:	e92d4800 	push	{fp, lr}
30001bc8:	e28db004 	add	fp, sp, #4
30001bcc:	e24dd020 	sub	sp, sp, #32
30001bd0:	e50b0018 	str	r0, [fp, #-24]	; 0xffffffe8
30001bd4:	e50b101c 	str	r1, [fp, #-28]	; 0xffffffe4
30001bd8:	e50b2020 	str	r2, [fp, #-32]	; 0xffffffe0
30001bdc:	e3a03000 	mov	r3, #0
30001be0:	e50b300c 	str	r3, [fp, #-12]
30001be4:	e51b3018 	ldr	r3, [fp, #-24]	; 0xffffffe8
30001be8:	e3c33eff 	bic	r3, r3, #4080	; 0xff0
30001bec:	e3c3300f 	bic	r3, r3, #15
30001bf0:	e50b3018 	str	r3, [fp, #-24]	; 0xffffffe8
30001bf4:	e51b301c 	ldr	r3, [fp, #-28]	; 0xffffffe4
30001bf8:	e1a03a83 	lsl	r3, r3, #21
30001bfc:	e1a03aa3 	lsr	r3, r3, #21
30001c00:	e3530000 	cmp	r3, #0
30001c04:	0a000004 	beq	30001c1c <nand_write+0x58>
30001c08:	e51b301c 	ldr	r3, [fp, #-28]	; 0xffffffe4
30001c0c:	e1a035a3 	lsr	r3, r3, #11
30001c10:	e2833001 	add	r3, r3, #1
30001c14:	e1a03583 	lsl	r3, r3, #11
30001c18:	e50b301c 	str	r3, [fp, #-28]	; 0xffffffe4
30001c1c:	e51b301c 	ldr	r3, [fp, #-28]	; 0xffffffe4
30001c20:	e1a035a3 	lsr	r3, r3, #11
30001c24:	e50b3014 	str	r3, [fp, #-20]	; 0xffffffec
30001c28:	e3a03000 	mov	r3, #0
30001c2c:	e50b3008 	str	r3, [fp, #-8]
30001c30:	ea000039 	b	30001d1c <nand_write+0x158>
30001c34:	e59f3104 	ldr	r3, [pc, #260]	; 30001d40 <nand_write+0x17c>
30001c38:	e5933004 	ldr	r3, [r3, #4]
30001c3c:	e1a0e00f 	mov	lr, pc
30001c40:	e12fff13 	bx	r3
30001c44:	e59f30f4 	ldr	r3, [pc, #244]	; 30001d40 <nand_write+0x17c>
30001c48:	e593300c 	ldr	r3, [r3, #12]
30001c4c:	e3a00080 	mov	r0, #128	; 0x80
30001c50:	e1a0e00f 	mov	lr, pc
30001c54:	e12fff13 	bx	r3
30001c58:	e59f30e0 	ldr	r3, [pc, #224]	; 30001d40 <nand_write+0x17c>
30001c5c:	e5933020 	ldr	r3, [r3, #32]
30001c60:	e51b2008 	ldr	r2, [fp, #-8]
30001c64:	e1a02602 	lsl	r2, r2, #12
30001c68:	e1a01002 	mov	r1, r2
30001c6c:	e51b2018 	ldr	r2, [fp, #-24]	; 0xffffffe8
30001c70:	e0812002 	add	r2, r1, r2
30001c74:	e1a00002 	mov	r0, r2
30001c78:	e3a01005 	mov	r1, #5
30001c7c:	e1a0e00f 	mov	lr, pc
30001c80:	e12fff13 	bx	r3
30001c84:	e3a03000 	mov	r3, #0
30001c88:	e50b300c 	str	r3, [fp, #-12]
30001c8c:	ea00000f 	b	30001cd0 <nand_write+0x10c>
30001c90:	e59f30a8 	ldr	r3, [pc, #168]	; 30001d40 <nand_write+0x17c>
30001c94:	e5933018 	ldr	r3, [r3, #24]
30001c98:	e51b2020 	ldr	r2, [fp, #-32]	; 0xffffffe0
30001c9c:	e5d22000 	ldrb	r2, [r2]
30001ca0:	e1a00002 	mov	r0, r2
30001ca4:	e1a0e00f 	mov	lr, pc
30001ca8:	e12fff13 	bx	r3
30001cac:	e51b3020 	ldr	r3, [fp, #-32]	; 0xffffffe0
30001cb0:	e2833001 	add	r3, r3, #1
30001cb4:	e50b3020 	str	r3, [fp, #-32]	; 0xffffffe0
30001cb8:	e51b300c 	ldr	r3, [fp, #-12]
30001cbc:	e2833001 	add	r3, r3, #1
30001cc0:	e50b300c 	str	r3, [fp, #-12]
30001cc4:	e51b3010 	ldr	r3, [fp, #-16]
30001cc8:	e2833001 	add	r3, r3, #1
30001ccc:	e50b3010 	str	r3, [fp, #-16]
30001cd0:	e51b300c 	ldr	r3, [fp, #-12]
30001cd4:	e3530b02 	cmp	r3, #2048	; 0x800
30001cd8:	3affffec 	bcc	30001c90 <nand_write+0xcc>
30001cdc:	e59f305c 	ldr	r3, [pc, #92]	; 30001d40 <nand_write+0x17c>
30001ce0:	e593300c 	ldr	r3, [r3, #12]
30001ce4:	e3a00010 	mov	r0, #16
30001ce8:	e1a0e00f 	mov	lr, pc
30001cec:	e12fff13 	bx	r3
30001cf0:	e59f3048 	ldr	r3, [pc, #72]	; 30001d40 <nand_write+0x17c>
30001cf4:	e5933010 	ldr	r3, [r3, #16]
30001cf8:	e1a0e00f 	mov	lr, pc
30001cfc:	e12fff13 	bx	r3
30001d00:	e59f3038 	ldr	r3, [pc, #56]	; 30001d40 <nand_write+0x17c>
30001d04:	e5933008 	ldr	r3, [r3, #8]
30001d08:	e1a0e00f 	mov	lr, pc
30001d0c:	e12fff13 	bx	r3
30001d10:	e51b3008 	ldr	r3, [fp, #-8]
30001d14:	e2833001 	add	r3, r3, #1
30001d18:	e50b3008 	str	r3, [fp, #-8]
30001d1c:	e51b2008 	ldr	r2, [fp, #-8]
30001d20:	e51b3014 	ldr	r3, [fp, #-20]	; 0xffffffec
30001d24:	e1520003 	cmp	r2, r3
30001d28:	baffffc1 	blt	30001c34 <nand_write+0x70>
30001d2c:	e3a03000 	mov	r3, #0
30001d30:	e1a00003 	mov	r0, r3
30001d34:	e24bd004 	sub	sp, fp, #4
30001d38:	e8bd4800 	pop	{fp, lr}
30001d3c:	e12fff1e 	bx	lr
30001d40:	30009018 	andcc	r9, r0, r8, lsl r0

30001d44 <block_erase>:
30001d44:	e92d4800 	push	{fp, lr}
30001d48:	e28db004 	add	fp, sp, #4
30001d4c:	e24dd008 	sub	sp, sp, #8
30001d50:	e50b0008 	str	r0, [fp, #-8]
30001d54:	e59f3080 	ldr	r3, [pc, #128]	; 30001ddc <block_erase+0x98>
30001d58:	e5933004 	ldr	r3, [r3, #4]
30001d5c:	e1a0e00f 	mov	lr, pc
30001d60:	e12fff13 	bx	r3
30001d64:	e59f3070 	ldr	r3, [pc, #112]	; 30001ddc <block_erase+0x98>
30001d68:	e593300c 	ldr	r3, [r3, #12]
30001d6c:	e3a00060 	mov	r0, #96	; 0x60
30001d70:	e1a0e00f 	mov	lr, pc
30001d74:	e12fff13 	bx	r3
30001d78:	e59f305c 	ldr	r3, [pc, #92]	; 30001ddc <block_erase+0x98>
30001d7c:	e5933020 	ldr	r3, [r3, #32]
30001d80:	e51b2008 	ldr	r2, [fp, #-8]
30001d84:	e1a00002 	mov	r0, r2
30001d88:	e3a01003 	mov	r1, #3
30001d8c:	e1a0e00f 	mov	lr, pc
30001d90:	e12fff13 	bx	r3
30001d94:	e59f3040 	ldr	r3, [pc, #64]	; 30001ddc <block_erase+0x98>
30001d98:	e593300c 	ldr	r3, [r3, #12]
30001d9c:	e3a000d0 	mov	r0, #208	; 0xd0
30001da0:	e1a0e00f 	mov	lr, pc
30001da4:	e12fff13 	bx	r3
30001da8:	e59f302c 	ldr	r3, [pc, #44]	; 30001ddc <block_erase+0x98>
30001dac:	e5933010 	ldr	r3, [r3, #16]
30001db0:	e1a0e00f 	mov	lr, pc
30001db4:	e12fff13 	bx	r3
30001db8:	e59f301c 	ldr	r3, [pc, #28]	; 30001ddc <block_erase+0x98>
30001dbc:	e5933008 	ldr	r3, [r3, #8]
30001dc0:	e1a0e00f 	mov	lr, pc
30001dc4:	e12fff13 	bx	r3
30001dc8:	e3a03000 	mov	r3, #0
30001dcc:	e1a00003 	mov	r0, r3
30001dd0:	e24bd004 	sub	sp, fp, #4
30001dd4:	e8bd4800 	pop	{fp, lr}
30001dd8:	e12fff1e 	bx	lr
30001ddc:	30009018 	andcc	r9, r0, r8, lsl r0

30001de0 <printf>:
30001de0:	e92d000f 	push	{r0, r1, r2, r3}
30001de4:	e92d4810 	push	{r4, fp, lr}
30001de8:	e28db008 	add	fp, sp, #8
30001dec:	e24dd014 	sub	sp, sp, #20
30001df0:	e28b3008 	add	r3, fp, #8
30001df4:	e50b3014 	str	r3, [fp, #-20]	; 0xffffffec
30001df8:	e59b3004 	ldr	r3, [fp, #4]
30001dfc:	e59f006c 	ldr	r0, [pc, #108]	; 30001e70 <printf+0x90>
30001e00:	e1a01003 	mov	r1, r3
30001e04:	e51b2014 	ldr	r2, [fp, #-20]	; 0xffffffec
30001e08:	eb000a3d 	bl	30004704 <vsprintf>
30001e0c:	e50b0018 	str	r0, [fp, #-24]	; 0xffffffe8
30001e10:	e3a03000 	mov	r3, #0
30001e14:	e50b3010 	str	r3, [fp, #-16]
30001e18:	ea000008 	b	30001e40 <printf+0x60>
30001e1c:	e59f204c 	ldr	r2, [pc, #76]	; 30001e70 <printf+0x90>
30001e20:	e51b3010 	ldr	r3, [fp, #-16]
30001e24:	e0823003 	add	r3, r2, r3
30001e28:	e5d33000 	ldrb	r3, [r3]
30001e2c:	e1a00003 	mov	r0, r3
30001e30:	eb00003a 	bl	30001f20 <putc>
30001e34:	e51b3010 	ldr	r3, [fp, #-16]
30001e38:	e2833001 	add	r3, r3, #1
30001e3c:	e50b3010 	str	r3, [fp, #-16]
30001e40:	e51b4010 	ldr	r4, [fp, #-16]
30001e44:	e59f0024 	ldr	r0, [pc, #36]	; 30001e70 <printf+0x90>
30001e48:	eb00019d 	bl	300024c4 <strlen>
30001e4c:	e1a03000 	mov	r3, r0
30001e50:	e1540003 	cmp	r4, r3
30001e54:	3afffff0 	bcc	30001e1c <printf+0x3c>
30001e58:	e51b3018 	ldr	r3, [fp, #-24]	; 0xffffffe8
30001e5c:	e1a00003 	mov	r0, r3
30001e60:	e24bd008 	sub	sp, fp, #8
30001e64:	e8bd4810 	pop	{r4, fp, lr}
30001e68:	e28dd010 	add	sp, sp, #16
30001e6c:	e12fff1e 	bx	lr
30001e70:	300087e8 	andcc	r8, r0, r8, ror #15

30001e74 <scanf>:
30001e74:	e92d000f 	push	{r0, r1, r2, r3}
30001e78:	e92d4800 	push	{fp, lr}
30001e7c:	e28db004 	add	fp, sp, #4
30001e80:	e24dd010 	sub	sp, sp, #16
30001e84:	e3a03000 	mov	r3, #0
30001e88:	e50b3008 	str	r3, [fp, #-8]
30001e8c:	eb00002e 	bl	30001f4c <getc>
30001e90:	e1a03000 	mov	r3, r0
30001e94:	e54b3009 	strb	r3, [fp, #-9]
30001e98:	e55b3009 	ldrb	r3, [fp, #-9]
30001e9c:	e353000d 	cmp	r3, #13
30001ea0:	0a000002 	beq	30001eb0 <scanf+0x3c>
30001ea4:	e55b3009 	ldrb	r3, [fp, #-9]
30001ea8:	e353000a 	cmp	r3, #10
30001eac:	1a000005 	bne	30001ec8 <scanf+0x54>
30001eb0:	e59f2064 	ldr	r2, [pc, #100]	; 30001f1c <scanf+0xa8>
30001eb4:	e51b3008 	ldr	r3, [fp, #-8]
30001eb8:	e0823003 	add	r3, r2, r3
30001ebc:	e3a02000 	mov	r2, #0
30001ec0:	e5c32000 	strb	r2, [r3]
30001ec4:	ea000006 	b	30001ee4 <scanf+0x70>
30001ec8:	e51b3008 	ldr	r3, [fp, #-8]
30001ecc:	e2832001 	add	r2, r3, #1
30001ed0:	e50b2008 	str	r2, [fp, #-8]
30001ed4:	e59f1040 	ldr	r1, [pc, #64]	; 30001f1c <scanf+0xa8>
30001ed8:	e55b2009 	ldrb	r2, [fp, #-9]
30001edc:	e7c12003 	strb	r2, [r1, r3]
30001ee0:	eaffffe9 	b	30001e8c <scanf+0x18>
30001ee4:	e28b3008 	add	r3, fp, #8
30001ee8:	e50b3010 	str	r3, [fp, #-16]
30001eec:	e59b3004 	ldr	r3, [fp, #4]
30001ef0:	e59f0024 	ldr	r0, [pc, #36]	; 30001f1c <scanf+0xa8>
30001ef4:	e1a01003 	mov	r1, r3
30001ef8:	e51b2010 	ldr	r2, [fp, #-16]
30001efc:	eb000a23 	bl	30004790 <vsscanf>
30001f00:	e50b0008 	str	r0, [fp, #-8]
30001f04:	e51b3008 	ldr	r3, [fp, #-8]
30001f08:	e1a00003 	mov	r0, r3
30001f0c:	e24bd004 	sub	sp, fp, #4
30001f10:	e8bd4800 	pop	{fp, lr}
30001f14:	e28dd010 	add	sp, sp, #16
30001f18:	e12fff1e 	bx	lr
30001f1c:	30008be8 	andcc	r8, r0, r8, ror #23

30001f20 <putc>:
30001f20:	e92d4800 	push	{fp, lr}
30001f24:	e28db004 	add	fp, sp, #4
30001f28:	e24dd008 	sub	sp, sp, #8
30001f2c:	e1a03000 	mov	r3, r0
30001f30:	e54b3005 	strb	r3, [fp, #-5]
30001f34:	e55b3005 	ldrb	r3, [fp, #-5]
30001f38:	e1a00003 	mov	r0, r3
30001f3c:	eb000384 	bl	30002d54 <uart_send_byte>
30001f40:	e24bd004 	sub	sp, fp, #4
30001f44:	e8bd4800 	pop	{fp, lr}
30001f48:	e12fff1e 	bx	lr

30001f4c <getc>:
30001f4c:	e92d4800 	push	{fp, lr}
30001f50:	e28db004 	add	fp, sp, #4
30001f54:	e24dd008 	sub	sp, sp, #8
30001f58:	eb000390 	bl	30002da0 <uart_recive_byte>
30001f5c:	e55b3005 	ldrb	r3, [fp, #-5]
30001f60:	e1a00003 	mov	r0, r3
30001f64:	e24bd004 	sub	sp, fp, #4
30001f68:	e8bd4800 	pop	{fp, lr}
30001f6c:	e12fff1e 	bx	lr

30001f70 <__tolower>:
30001f70:	e52db004 	push	{fp}		; (str fp, [sp, #-4]!)
30001f74:	e28db000 	add	fp, sp, #0
30001f78:	e24dd00c 	sub	sp, sp, #12
30001f7c:	e1a03000 	mov	r3, r0
30001f80:	e54b3005 	strb	r3, [fp, #-5]
30001f84:	e55b3005 	ldrb	r3, [fp, #-5]
30001f88:	e59f202c 	ldr	r2, [pc, #44]	; 30001fbc <__tolower+0x4c>
30001f8c:	e7d23003 	ldrb	r3, [r2, r3]
30001f90:	e2033001 	and	r3, r3, #1
30001f94:	e3530000 	cmp	r3, #0
30001f98:	0a000002 	beq	30001fa8 <__tolower+0x38>
30001f9c:	e55b3005 	ldrb	r3, [fp, #-5]
30001fa0:	e2833020 	add	r3, r3, #32
30001fa4:	e54b3005 	strb	r3, [fp, #-5]
30001fa8:	e55b3005 	ldrb	r3, [fp, #-5]
30001fac:	e1a00003 	mov	r0, r3
30001fb0:	e24bd000 	sub	sp, fp, #0
30001fb4:	e49db004 	pop	{fp}		; (ldr fp, [sp], #4)
30001fb8:	e12fff1e 	bx	lr
30001fbc:	300056d0 	ldrdcc	r5, [r0], -r0

30001fc0 <strnicmp>:
30001fc0:	e92d4800 	push	{fp, lr}
30001fc4:	e28db004 	add	fp, sp, #4
30001fc8:	e24dd018 	sub	sp, sp, #24
30001fcc:	e50b0010 	str	r0, [fp, #-16]
30001fd0:	e50b1014 	str	r1, [fp, #-20]	; 0xffffffec
30001fd4:	e50b2018 	str	r2, [fp, #-24]	; 0xffffffe8
30001fd8:	e3a03000 	mov	r3, #0
30001fdc:	e54b3005 	strb	r3, [fp, #-5]
30001fe0:	e3a03000 	mov	r3, #0
30001fe4:	e54b3006 	strb	r3, [fp, #-6]
30001fe8:	e51b3018 	ldr	r3, [fp, #-24]	; 0xffffffe8
30001fec:	e3530000 	cmp	r3, #0
30001ff0:	0a00002d 	beq	300020ac <strnicmp+0xec>
30001ff4:	e51b3010 	ldr	r3, [fp, #-16]
30001ff8:	e5d33000 	ldrb	r3, [r3]
30001ffc:	e54b3005 	strb	r3, [fp, #-5]
30002000:	e51b3014 	ldr	r3, [fp, #-20]	; 0xffffffec
30002004:	e5d33000 	ldrb	r3, [r3]
30002008:	e54b3006 	strb	r3, [fp, #-6]
3000200c:	e51b3010 	ldr	r3, [fp, #-16]
30002010:	e2833001 	add	r3, r3, #1
30002014:	e50b3010 	str	r3, [fp, #-16]
30002018:	e51b3014 	ldr	r3, [fp, #-20]	; 0xffffffec
3000201c:	e2833001 	add	r3, r3, #1
30002020:	e50b3014 	str	r3, [fp, #-20]	; 0xffffffec
30002024:	e55b3005 	ldrb	r3, [fp, #-5]
30002028:	e3530000 	cmp	r3, #0
3000202c:	1a000000 	bne	30002034 <strnicmp+0x74>
30002030:	ea00001d 	b	300020ac <strnicmp+0xec>
30002034:	e55b3006 	ldrb	r3, [fp, #-6]
30002038:	e3530000 	cmp	r3, #0
3000203c:	1a000000 	bne	30002044 <strnicmp+0x84>
30002040:	ea000019 	b	300020ac <strnicmp+0xec>
30002044:	e55b2005 	ldrb	r2, [fp, #-5]
30002048:	e55b3006 	ldrb	r3, [fp, #-6]
3000204c:	e1520003 	cmp	r2, r3
30002050:	1a000000 	bne	30002058 <strnicmp+0x98>
30002054:	ea00000e 	b	30002094 <strnicmp+0xd4>
30002058:	e55b3005 	ldrb	r3, [fp, #-5]
3000205c:	e1a00003 	mov	r0, r3
30002060:	ebffffc2 	bl	30001f70 <__tolower>
30002064:	e1a03000 	mov	r3, r0
30002068:	e54b3005 	strb	r3, [fp, #-5]
3000206c:	e55b3006 	ldrb	r3, [fp, #-6]
30002070:	e1a00003 	mov	r0, r3
30002074:	ebffffbd 	bl	30001f70 <__tolower>
30002078:	e1a03000 	mov	r3, r0
3000207c:	e54b3006 	strb	r3, [fp, #-6]
30002080:	e55b2005 	ldrb	r2, [fp, #-5]
30002084:	e55b3006 	ldrb	r3, [fp, #-6]
30002088:	e1520003 	cmp	r2, r3
3000208c:	0a000000 	beq	30002094 <strnicmp+0xd4>
30002090:	ea000005 	b	300020ac <strnicmp+0xec>
30002094:	e51b3018 	ldr	r3, [fp, #-24]	; 0xffffffe8
30002098:	e2433001 	sub	r3, r3, #1
3000209c:	e50b3018 	str	r3, [fp, #-24]	; 0xffffffe8
300020a0:	e51b3018 	ldr	r3, [fp, #-24]	; 0xffffffe8
300020a4:	e3530000 	cmp	r3, #0
300020a8:	1affffd1 	bne	30001ff4 <strnicmp+0x34>
300020ac:	e55b2005 	ldrb	r2, [fp, #-5]
300020b0:	e55b3006 	ldrb	r3, [fp, #-6]
300020b4:	e0633002 	rsb	r3, r3, r2
300020b8:	e1a00003 	mov	r0, r3
300020bc:	e24bd004 	sub	sp, fp, #4
300020c0:	e8bd4800 	pop	{fp, lr}
300020c4:	e12fff1e 	bx	lr

300020c8 <strcpy>:
300020c8:	e52db004 	push	{fp}		; (str fp, [sp, #-4]!)
300020cc:	e28db000 	add	fp, sp, #0
300020d0:	e24dd014 	sub	sp, sp, #20
300020d4:	e50b0010 	str	r0, [fp, #-16]
300020d8:	e50b1014 	str	r1, [fp, #-20]	; 0xffffffec
300020dc:	e51b3010 	ldr	r3, [fp, #-16]
300020e0:	e50b3008 	str	r3, [fp, #-8]
300020e4:	e1a00000 	nop			; (mov r0, r0)
300020e8:	e51b3010 	ldr	r3, [fp, #-16]
300020ec:	e2832001 	add	r2, r3, #1
300020f0:	e50b2010 	str	r2, [fp, #-16]
300020f4:	e51b2014 	ldr	r2, [fp, #-20]	; 0xffffffec
300020f8:	e2821001 	add	r1, r2, #1
300020fc:	e50b1014 	str	r1, [fp, #-20]	; 0xffffffec
30002100:	e5d22000 	ldrb	r2, [r2]
30002104:	e5c32000 	strb	r2, [r3]
30002108:	e5d33000 	ldrb	r3, [r3]
3000210c:	e3530000 	cmp	r3, #0
30002110:	1afffff4 	bne	300020e8 <strcpy+0x20>
30002114:	e51b3008 	ldr	r3, [fp, #-8]
30002118:	e1a00003 	mov	r0, r3
3000211c:	e24bd000 	sub	sp, fp, #0
30002120:	e49db004 	pop	{fp}		; (ldr fp, [sp], #4)
30002124:	e12fff1e 	bx	lr

30002128 <strncpy>:
30002128:	e52db004 	push	{fp}		; (str fp, [sp, #-4]!)
3000212c:	e28db000 	add	fp, sp, #0
30002130:	e24dd01c 	sub	sp, sp, #28
30002134:	e50b0010 	str	r0, [fp, #-16]
30002138:	e50b1014 	str	r1, [fp, #-20]	; 0xffffffec
3000213c:	e50b2018 	str	r2, [fp, #-24]	; 0xffffffe8
30002140:	e51b3010 	ldr	r3, [fp, #-16]
30002144:	e50b3008 	str	r3, [fp, #-8]
30002148:	e1a00000 	nop			; (mov r0, r0)
3000214c:	e51b3018 	ldr	r3, [fp, #-24]	; 0xffffffe8
30002150:	e2432001 	sub	r2, r3, #1
30002154:	e50b2018 	str	r2, [fp, #-24]	; 0xffffffe8
30002158:	e3530000 	cmp	r3, #0
3000215c:	0a00000a 	beq	3000218c <strncpy+0x64>
30002160:	e51b3010 	ldr	r3, [fp, #-16]
30002164:	e2832001 	add	r2, r3, #1
30002168:	e50b2010 	str	r2, [fp, #-16]
3000216c:	e51b2014 	ldr	r2, [fp, #-20]	; 0xffffffec
30002170:	e2821001 	add	r1, r2, #1
30002174:	e50b1014 	str	r1, [fp, #-20]	; 0xffffffec
30002178:	e5d22000 	ldrb	r2, [r2]
3000217c:	e5c32000 	strb	r2, [r3]
30002180:	e5d33000 	ldrb	r3, [r3]
30002184:	e3530000 	cmp	r3, #0
30002188:	1affffef 	bne	3000214c <strncpy+0x24>
3000218c:	e51b3008 	ldr	r3, [fp, #-8]
30002190:	e1a00003 	mov	r0, r3
30002194:	e24bd000 	sub	sp, fp, #0
30002198:	e49db004 	pop	{fp}		; (ldr fp, [sp], #4)
3000219c:	e12fff1e 	bx	lr

300021a0 <strcat>:
300021a0:	e52db004 	push	{fp}		; (str fp, [sp, #-4]!)
300021a4:	e28db000 	add	fp, sp, #0
300021a8:	e24dd014 	sub	sp, sp, #20
300021ac:	e50b0010 	str	r0, [fp, #-16]
300021b0:	e50b1014 	str	r1, [fp, #-20]	; 0xffffffec
300021b4:	e51b3010 	ldr	r3, [fp, #-16]
300021b8:	e50b3008 	str	r3, [fp, #-8]
300021bc:	ea000002 	b	300021cc <strcat+0x2c>
300021c0:	e51b3010 	ldr	r3, [fp, #-16]
300021c4:	e2833001 	add	r3, r3, #1
300021c8:	e50b3010 	str	r3, [fp, #-16]
300021cc:	e51b3010 	ldr	r3, [fp, #-16]
300021d0:	e5d33000 	ldrb	r3, [r3]
300021d4:	e3530000 	cmp	r3, #0
300021d8:	1afffff8 	bne	300021c0 <strcat+0x20>
300021dc:	e1a00000 	nop			; (mov r0, r0)
300021e0:	e51b3010 	ldr	r3, [fp, #-16]
300021e4:	e2832001 	add	r2, r3, #1
300021e8:	e50b2010 	str	r2, [fp, #-16]
300021ec:	e51b2014 	ldr	r2, [fp, #-20]	; 0xffffffec
300021f0:	e2821001 	add	r1, r2, #1
300021f4:	e50b1014 	str	r1, [fp, #-20]	; 0xffffffec
300021f8:	e5d22000 	ldrb	r2, [r2]
300021fc:	e5c32000 	strb	r2, [r3]
30002200:	e5d33000 	ldrb	r3, [r3]
30002204:	e3530000 	cmp	r3, #0
30002208:	1afffff4 	bne	300021e0 <strcat+0x40>
3000220c:	e51b3008 	ldr	r3, [fp, #-8]
30002210:	e1a00003 	mov	r0, r3
30002214:	e24bd000 	sub	sp, fp, #0
30002218:	e49db004 	pop	{fp}		; (ldr fp, [sp], #4)
3000221c:	e12fff1e 	bx	lr

30002220 <strncat>:
30002220:	e52db004 	push	{fp}		; (str fp, [sp, #-4]!)
30002224:	e28db000 	add	fp, sp, #0
30002228:	e24dd01c 	sub	sp, sp, #28
3000222c:	e50b0010 	str	r0, [fp, #-16]
30002230:	e50b1014 	str	r1, [fp, #-20]	; 0xffffffec
30002234:	e50b2018 	str	r2, [fp, #-24]	; 0xffffffe8
30002238:	e51b3010 	ldr	r3, [fp, #-16]
3000223c:	e50b3008 	str	r3, [fp, #-8]
30002240:	e51b3018 	ldr	r3, [fp, #-24]	; 0xffffffe8
30002244:	e3530000 	cmp	r3, #0
30002248:	0a00001d 	beq	300022c4 <strncat+0xa4>
3000224c:	ea000002 	b	3000225c <strncat+0x3c>
30002250:	e51b3010 	ldr	r3, [fp, #-16]
30002254:	e2833001 	add	r3, r3, #1
30002258:	e50b3010 	str	r3, [fp, #-16]
3000225c:	e51b3010 	ldr	r3, [fp, #-16]
30002260:	e5d33000 	ldrb	r3, [r3]
30002264:	e3530000 	cmp	r3, #0
30002268:	1afffff8 	bne	30002250 <strncat+0x30>
3000226c:	ea000009 	b	30002298 <strncat+0x78>
30002270:	e51b3018 	ldr	r3, [fp, #-24]	; 0xffffffe8
30002274:	e2433001 	sub	r3, r3, #1
30002278:	e50b3018 	str	r3, [fp, #-24]	; 0xffffffe8
3000227c:	e51b3018 	ldr	r3, [fp, #-24]	; 0xffffffe8
30002280:	e3530000 	cmp	r3, #0
30002284:	1a000003 	bne	30002298 <strncat+0x78>
30002288:	e51b3010 	ldr	r3, [fp, #-16]
3000228c:	e3a02000 	mov	r2, #0
30002290:	e5c32000 	strb	r2, [r3]
30002294:	ea00000a 	b	300022c4 <strncat+0xa4>
30002298:	e51b3010 	ldr	r3, [fp, #-16]
3000229c:	e2832001 	add	r2, r3, #1
300022a0:	e50b2010 	str	r2, [fp, #-16]
300022a4:	e51b2014 	ldr	r2, [fp, #-20]	; 0xffffffec
300022a8:	e2821001 	add	r1, r2, #1
300022ac:	e50b1014 	str	r1, [fp, #-20]	; 0xffffffec
300022b0:	e5d22000 	ldrb	r2, [r2]
300022b4:	e5c32000 	strb	r2, [r3]
300022b8:	e5d33000 	ldrb	r3, [r3]
300022bc:	e3530000 	cmp	r3, #0
300022c0:	1affffea 	bne	30002270 <strncat+0x50>
300022c4:	e51b3008 	ldr	r3, [fp, #-8]
300022c8:	e1a00003 	mov	r0, r3
300022cc:	e24bd000 	sub	sp, fp, #0
300022d0:	e49db004 	pop	{fp}		; (ldr fp, [sp], #4)
300022d4:	e12fff1e 	bx	lr

300022d8 <strcmp>:
300022d8:	e92d0810 	push	{r4, fp}
300022dc:	e28db004 	add	fp, sp, #4
300022e0:	e24dd008 	sub	sp, sp, #8
300022e4:	e50b0008 	str	r0, [fp, #-8]
300022e8:	e50b100c 	str	r1, [fp, #-12]
300022ec:	e51b3008 	ldr	r3, [fp, #-8]
300022f0:	e5d32000 	ldrb	r2, [r3]
300022f4:	e51b300c 	ldr	r3, [fp, #-12]
300022f8:	e2831001 	add	r1, r3, #1
300022fc:	e50b100c 	str	r1, [fp, #-12]
30002300:	e5d33000 	ldrb	r3, [r3]
30002304:	e0633002 	rsb	r3, r3, r2
30002308:	e20330ff 	and	r3, r3, #255	; 0xff
3000230c:	e20340ff 	and	r4, r3, #255	; 0xff
30002310:	e3540000 	cmp	r4, #0
30002314:	1a000006 	bne	30002334 <strcmp+0x5c>
30002318:	e51b3008 	ldr	r3, [fp, #-8]
3000231c:	e2832001 	add	r2, r3, #1
30002320:	e50b2008 	str	r2, [fp, #-8]
30002324:	e5d33000 	ldrb	r3, [r3]
30002328:	e3530000 	cmp	r3, #0
3000232c:	0a000000 	beq	30002334 <strcmp+0x5c>
30002330:	eaffffed 	b	300022ec <strcmp+0x14>
30002334:	e1a03c04 	lsl	r3, r4, #24
30002338:	e1a03c43 	asr	r3, r3, #24
3000233c:	e1a00003 	mov	r0, r3
30002340:	e24bd004 	sub	sp, fp, #4
30002344:	e8bd0810 	pop	{r4, fp}
30002348:	e12fff1e 	bx	lr

3000234c <strncmp>:
3000234c:	e92d0810 	push	{r4, fp}
30002350:	e28db004 	add	fp, sp, #4
30002354:	e24dd010 	sub	sp, sp, #16
30002358:	e50b0008 	str	r0, [fp, #-8]
3000235c:	e50b100c 	str	r1, [fp, #-12]
30002360:	e50b2010 	str	r2, [fp, #-16]
30002364:	e3a04000 	mov	r4, #0
30002368:	ea000013 	b	300023bc <strncmp+0x70>
3000236c:	e51b3008 	ldr	r3, [fp, #-8]
30002370:	e5d32000 	ldrb	r2, [r3]
30002374:	e51b300c 	ldr	r3, [fp, #-12]
30002378:	e2831001 	add	r1, r3, #1
3000237c:	e50b100c 	str	r1, [fp, #-12]
30002380:	e5d33000 	ldrb	r3, [r3]
30002384:	e0633002 	rsb	r3, r3, r2
30002388:	e20330ff 	and	r3, r3, #255	; 0xff
3000238c:	e20340ff 	and	r4, r3, #255	; 0xff
30002390:	e3540000 	cmp	r4, #0
30002394:	1a00000b 	bne	300023c8 <strncmp+0x7c>
30002398:	e51b3008 	ldr	r3, [fp, #-8]
3000239c:	e2832001 	add	r2, r3, #1
300023a0:	e50b2008 	str	r2, [fp, #-8]
300023a4:	e5d33000 	ldrb	r3, [r3]
300023a8:	e3530000 	cmp	r3, #0
300023ac:	0a000005 	beq	300023c8 <strncmp+0x7c>
300023b0:	e51b3010 	ldr	r3, [fp, #-16]
300023b4:	e2433001 	sub	r3, r3, #1
300023b8:	e50b3010 	str	r3, [fp, #-16]
300023bc:	e51b3010 	ldr	r3, [fp, #-16]
300023c0:	e3530000 	cmp	r3, #0
300023c4:	1affffe8 	bne	3000236c <strncmp+0x20>
300023c8:	e1a03c04 	lsl	r3, r4, #24
300023cc:	e1a03c43 	asr	r3, r3, #24
300023d0:	e1a00003 	mov	r0, r3
300023d4:	e24bd004 	sub	sp, fp, #4
300023d8:	e8bd0810 	pop	{r4, fp}
300023dc:	e12fff1e 	bx	lr

300023e0 <strchr>:
300023e0:	e52db004 	push	{fp}		; (str fp, [sp, #-4]!)
300023e4:	e28db000 	add	fp, sp, #0
300023e8:	e24dd00c 	sub	sp, sp, #12
300023ec:	e50b0008 	str	r0, [fp, #-8]
300023f0:	e50b100c 	str	r1, [fp, #-12]
300023f4:	ea000008 	b	3000241c <strchr+0x3c>
300023f8:	e51b3008 	ldr	r3, [fp, #-8]
300023fc:	e5d33000 	ldrb	r3, [r3]
30002400:	e3530000 	cmp	r3, #0
30002404:	1a000001 	bne	30002410 <strchr+0x30>
30002408:	e3a03000 	mov	r3, #0
3000240c:	ea000009 	b	30002438 <strchr+0x58>
30002410:	e51b3008 	ldr	r3, [fp, #-8]
30002414:	e2833001 	add	r3, r3, #1
30002418:	e50b3008 	str	r3, [fp, #-8]
3000241c:	e51b3008 	ldr	r3, [fp, #-8]
30002420:	e5d32000 	ldrb	r2, [r3]
30002424:	e51b300c 	ldr	r3, [fp, #-12]
30002428:	e20330ff 	and	r3, r3, #255	; 0xff
3000242c:	e1520003 	cmp	r2, r3
30002430:	1afffff0 	bne	300023f8 <strchr+0x18>
30002434:	e51b3008 	ldr	r3, [fp, #-8]
30002438:	e1a00003 	mov	r0, r3
3000243c:	e24bd000 	sub	sp, fp, #0
30002440:	e49db004 	pop	{fp}		; (ldr fp, [sp], #4)
30002444:	e12fff1e 	bx	lr

30002448 <strrchr>:
30002448:	e92d4800 	push	{fp, lr}
3000244c:	e28db004 	add	fp, sp, #4
30002450:	e24dd010 	sub	sp, sp, #16
30002454:	e50b0010 	str	r0, [fp, #-16]
30002458:	e50b1014 	str	r1, [fp, #-20]	; 0xffffffec
3000245c:	e51b0010 	ldr	r0, [fp, #-16]
30002460:	eb000017 	bl	300024c4 <strlen>
30002464:	e1a02000 	mov	r2, r0
30002468:	e51b3010 	ldr	r3, [fp, #-16]
3000246c:	e0833002 	add	r3, r3, r2
30002470:	e50b3008 	str	r3, [fp, #-8]
30002474:	e51b3008 	ldr	r3, [fp, #-8]
30002478:	e5d32000 	ldrb	r2, [r3]
3000247c:	e51b3014 	ldr	r3, [fp, #-20]	; 0xffffffec
30002480:	e20330ff 	and	r3, r3, #255	; 0xff
30002484:	e1520003 	cmp	r2, r3
30002488:	1a000001 	bne	30002494 <strrchr+0x4c>
3000248c:	e51b3008 	ldr	r3, [fp, #-8]
30002490:	ea000007 	b	300024b4 <strrchr+0x6c>
30002494:	e51b3008 	ldr	r3, [fp, #-8]
30002498:	e2433001 	sub	r3, r3, #1
3000249c:	e50b3008 	str	r3, [fp, #-8]
300024a0:	e51b2008 	ldr	r2, [fp, #-8]
300024a4:	e51b3010 	ldr	r3, [fp, #-16]
300024a8:	e1520003 	cmp	r2, r3
300024ac:	2afffff0 	bcs	30002474 <strrchr+0x2c>
300024b0:	e3a03000 	mov	r3, #0
300024b4:	e1a00003 	mov	r0, r3
300024b8:	e24bd004 	sub	sp, fp, #4
300024bc:	e8bd4800 	pop	{fp, lr}
300024c0:	e12fff1e 	bx	lr

300024c4 <strlen>:
300024c4:	e52db004 	push	{fp}		; (str fp, [sp, #-4]!)
300024c8:	e28db000 	add	fp, sp, #0
300024cc:	e24dd014 	sub	sp, sp, #20
300024d0:	e50b0010 	str	r0, [fp, #-16]
300024d4:	e51b3010 	ldr	r3, [fp, #-16]
300024d8:	e50b3008 	str	r3, [fp, #-8]
300024dc:	ea000002 	b	300024ec <strlen+0x28>
300024e0:	e51b3008 	ldr	r3, [fp, #-8]
300024e4:	e2833001 	add	r3, r3, #1
300024e8:	e50b3008 	str	r3, [fp, #-8]
300024ec:	e51b3008 	ldr	r3, [fp, #-8]
300024f0:	e5d33000 	ldrb	r3, [r3]
300024f4:	e3530000 	cmp	r3, #0
300024f8:	1afffff8 	bne	300024e0 <strlen+0x1c>
300024fc:	e51b2008 	ldr	r2, [fp, #-8]
30002500:	e51b3010 	ldr	r3, [fp, #-16]
30002504:	e0633002 	rsb	r3, r3, r2
30002508:	e1a00003 	mov	r0, r3
3000250c:	e24bd000 	sub	sp, fp, #0
30002510:	e49db004 	pop	{fp}		; (ldr fp, [sp], #4)
30002514:	e12fff1e 	bx	lr

30002518 <strnlen>:
30002518:	e52db004 	push	{fp}		; (str fp, [sp, #-4]!)
3000251c:	e28db000 	add	fp, sp, #0
30002520:	e24dd014 	sub	sp, sp, #20
30002524:	e50b0010 	str	r0, [fp, #-16]
30002528:	e50b1014 	str	r1, [fp, #-20]	; 0xffffffec
3000252c:	e51b3010 	ldr	r3, [fp, #-16]
30002530:	e50b3008 	str	r3, [fp, #-8]
30002534:	ea000002 	b	30002544 <strnlen+0x2c>
30002538:	e51b3008 	ldr	r3, [fp, #-8]
3000253c:	e2833001 	add	r3, r3, #1
30002540:	e50b3008 	str	r3, [fp, #-8]
30002544:	e51b3014 	ldr	r3, [fp, #-20]	; 0xffffffec
30002548:	e2432001 	sub	r2, r3, #1
3000254c:	e50b2014 	str	r2, [fp, #-20]	; 0xffffffec
30002550:	e3530000 	cmp	r3, #0
30002554:	0a000003 	beq	30002568 <strnlen+0x50>
30002558:	e51b3008 	ldr	r3, [fp, #-8]
3000255c:	e5d33000 	ldrb	r3, [r3]
30002560:	e3530000 	cmp	r3, #0
30002564:	1afffff3 	bne	30002538 <strnlen+0x20>
30002568:	e51b2008 	ldr	r2, [fp, #-8]
3000256c:	e51b3010 	ldr	r3, [fp, #-16]
30002570:	e0633002 	rsb	r3, r3, r2
30002574:	e1a00003 	mov	r0, r3
30002578:	e24bd000 	sub	sp, fp, #0
3000257c:	e49db004 	pop	{fp}		; (ldr fp, [sp], #4)
30002580:	e12fff1e 	bx	lr

30002584 <strspn>:
30002584:	e52db004 	push	{fp}		; (str fp, [sp, #-4]!)
30002588:	e28db000 	add	fp, sp, #0
3000258c:	e24dd01c 	sub	sp, sp, #28
30002590:	e50b0018 	str	r0, [fp, #-24]	; 0xffffffe8
30002594:	e50b101c 	str	r1, [fp, #-28]	; 0xffffffe4
30002598:	e3a03000 	mov	r3, #0
3000259c:	e50b3010 	str	r3, [fp, #-16]
300025a0:	e51b3018 	ldr	r3, [fp, #-24]	; 0xffffffe8
300025a4:	e50b3008 	str	r3, [fp, #-8]
300025a8:	ea00001c 	b	30002620 <strspn+0x9c>
300025ac:	e51b301c 	ldr	r3, [fp, #-28]	; 0xffffffe4
300025b0:	e50b300c 	str	r3, [fp, #-12]
300025b4:	ea000009 	b	300025e0 <strspn+0x5c>
300025b8:	e51b3008 	ldr	r3, [fp, #-8]
300025bc:	e5d32000 	ldrb	r2, [r3]
300025c0:	e51b300c 	ldr	r3, [fp, #-12]
300025c4:	e5d33000 	ldrb	r3, [r3]
300025c8:	e1520003 	cmp	r2, r3
300025cc:	1a000000 	bne	300025d4 <strspn+0x50>
300025d0:	ea000006 	b	300025f0 <strspn+0x6c>
300025d4:	e51b300c 	ldr	r3, [fp, #-12]
300025d8:	e2833001 	add	r3, r3, #1
300025dc:	e50b300c 	str	r3, [fp, #-12]
300025e0:	e51b300c 	ldr	r3, [fp, #-12]
300025e4:	e5d33000 	ldrb	r3, [r3]
300025e8:	e3530000 	cmp	r3, #0
300025ec:	1afffff1 	bne	300025b8 <strspn+0x34>
300025f0:	e51b300c 	ldr	r3, [fp, #-12]
300025f4:	e5d33000 	ldrb	r3, [r3]
300025f8:	e3530000 	cmp	r3, #0
300025fc:	1a000001 	bne	30002608 <strspn+0x84>
30002600:	e51b3010 	ldr	r3, [fp, #-16]
30002604:	ea00000a 	b	30002634 <strspn+0xb0>
30002608:	e51b3010 	ldr	r3, [fp, #-16]
3000260c:	e2833001 	add	r3, r3, #1
30002610:	e50b3010 	str	r3, [fp, #-16]
30002614:	e51b3008 	ldr	r3, [fp, #-8]
30002618:	e2833001 	add	r3, r3, #1
3000261c:	e50b3008 	str	r3, [fp, #-8]
30002620:	e51b3008 	ldr	r3, [fp, #-8]
30002624:	e5d33000 	ldrb	r3, [r3]
30002628:	e3530000 	cmp	r3, #0
3000262c:	1affffde 	bne	300025ac <strspn+0x28>
30002630:	e51b3010 	ldr	r3, [fp, #-16]
30002634:	e1a00003 	mov	r0, r3
30002638:	e24bd000 	sub	sp, fp, #0
3000263c:	e49db004 	pop	{fp}		; (ldr fp, [sp], #4)
30002640:	e12fff1e 	bx	lr

30002644 <strpbrk>:
30002644:	e52db004 	push	{fp}		; (str fp, [sp, #-4]!)
30002648:	e28db000 	add	fp, sp, #0
3000264c:	e24dd014 	sub	sp, sp, #20
30002650:	e50b0010 	str	r0, [fp, #-16]
30002654:	e50b1014 	str	r1, [fp, #-20]	; 0xffffffec
30002658:	e51b3010 	ldr	r3, [fp, #-16]
3000265c:	e50b3008 	str	r3, [fp, #-8]
30002660:	ea000014 	b	300026b8 <strpbrk+0x74>
30002664:	e51b3014 	ldr	r3, [fp, #-20]	; 0xffffffec
30002668:	e50b300c 	str	r3, [fp, #-12]
3000266c:	ea00000a 	b	3000269c <strpbrk+0x58>
30002670:	e51b3008 	ldr	r3, [fp, #-8]
30002674:	e5d32000 	ldrb	r2, [r3]
30002678:	e51b300c 	ldr	r3, [fp, #-12]
3000267c:	e5d33000 	ldrb	r3, [r3]
30002680:	e1520003 	cmp	r2, r3
30002684:	1a000001 	bne	30002690 <strpbrk+0x4c>
30002688:	e51b3008 	ldr	r3, [fp, #-8]
3000268c:	ea00000e 	b	300026cc <strpbrk+0x88>
30002690:	e51b300c 	ldr	r3, [fp, #-12]
30002694:	e2833001 	add	r3, r3, #1
30002698:	e50b300c 	str	r3, [fp, #-12]
3000269c:	e51b300c 	ldr	r3, [fp, #-12]
300026a0:	e5d33000 	ldrb	r3, [r3]
300026a4:	e3530000 	cmp	r3, #0
300026a8:	1afffff0 	bne	30002670 <strpbrk+0x2c>
300026ac:	e51b3008 	ldr	r3, [fp, #-8]
300026b0:	e2833001 	add	r3, r3, #1
300026b4:	e50b3008 	str	r3, [fp, #-8]
300026b8:	e51b3008 	ldr	r3, [fp, #-8]
300026bc:	e5d33000 	ldrb	r3, [r3]
300026c0:	e3530000 	cmp	r3, #0
300026c4:	1affffe6 	bne	30002664 <strpbrk+0x20>
300026c8:	e3a03000 	mov	r3, #0
300026cc:	e1a00003 	mov	r0, r3
300026d0:	e24bd000 	sub	sp, fp, #0
300026d4:	e49db004 	pop	{fp}		; (ldr fp, [sp], #4)
300026d8:	e12fff1e 	bx	lr

300026dc <strtok>:
300026dc:	e92d4800 	push	{fp, lr}
300026e0:	e28db004 	add	fp, sp, #4
300026e4:	e24dd010 	sub	sp, sp, #16
300026e8:	e50b0010 	str	r0, [fp, #-16]
300026ec:	e50b1014 	str	r1, [fp, #-20]	; 0xffffffec
300026f0:	e51b3010 	ldr	r3, [fp, #-16]
300026f4:	e3530000 	cmp	r3, #0
300026f8:	0a000001 	beq	30002704 <strtok+0x28>
300026fc:	e51b3010 	ldr	r3, [fp, #-16]
30002700:	ea000001 	b	3000270c <strtok+0x30>
30002704:	e59f30b8 	ldr	r3, [pc, #184]	; 300027c4 <strtok+0xe8>
30002708:	e5933000 	ldr	r3, [r3]
3000270c:	e50b300c 	str	r3, [fp, #-12]
30002710:	e51b300c 	ldr	r3, [fp, #-12]
30002714:	e3530000 	cmp	r3, #0
30002718:	1a000001 	bne	30002724 <strtok+0x48>
3000271c:	e3a03000 	mov	r3, #0
30002720:	ea000023 	b	300027b4 <strtok+0xd8>
30002724:	e51b000c 	ldr	r0, [fp, #-12]
30002728:	e51b1014 	ldr	r1, [fp, #-20]	; 0xffffffec
3000272c:	ebffff94 	bl	30002584 <strspn>
30002730:	e1a02000 	mov	r2, r0
30002734:	e51b300c 	ldr	r3, [fp, #-12]
30002738:	e0833002 	add	r3, r3, r2
3000273c:	e50b300c 	str	r3, [fp, #-12]
30002740:	e51b300c 	ldr	r3, [fp, #-12]
30002744:	e5d33000 	ldrb	r3, [r3]
30002748:	e3530000 	cmp	r3, #0
3000274c:	1a000004 	bne	30002764 <strtok+0x88>
30002750:	e59f306c 	ldr	r3, [pc, #108]	; 300027c4 <strtok+0xe8>
30002754:	e3a02000 	mov	r2, #0
30002758:	e5832000 	str	r2, [r3]
3000275c:	e3a03000 	mov	r3, #0
30002760:	ea000013 	b	300027b4 <strtok+0xd8>
30002764:	e51b000c 	ldr	r0, [fp, #-12]
30002768:	e51b1014 	ldr	r1, [fp, #-20]	; 0xffffffec
3000276c:	ebffffb4 	bl	30002644 <strpbrk>
30002770:	e50b0008 	str	r0, [fp, #-8]
30002774:	e51b3008 	ldr	r3, [fp, #-8]
30002778:	e3530000 	cmp	r3, #0
3000277c:	0a000008 	beq	300027a4 <strtok+0xc8>
30002780:	e51b3008 	ldr	r3, [fp, #-8]
30002784:	e5d33000 	ldrb	r3, [r3]
30002788:	e3530000 	cmp	r3, #0
3000278c:	0a000004 	beq	300027a4 <strtok+0xc8>
30002790:	e51b3008 	ldr	r3, [fp, #-8]
30002794:	e2832001 	add	r2, r3, #1
30002798:	e50b2008 	str	r2, [fp, #-8]
3000279c:	e3a02000 	mov	r2, #0
300027a0:	e5c32000 	strb	r2, [r3]
300027a4:	e59f2018 	ldr	r2, [pc, #24]	; 300027c4 <strtok+0xe8>
300027a8:	e51b3008 	ldr	r3, [fp, #-8]
300027ac:	e5823000 	str	r3, [r2]
300027b0:	e51b300c 	ldr	r3, [fp, #-12]
300027b4:	e1a00003 	mov	r0, r3
300027b8:	e24bd004 	sub	sp, fp, #4
300027bc:	e8bd4800 	pop	{fp, lr}
300027c0:	e12fff1e 	bx	lr
300027c4:	3000903c 	andcc	r9, r0, ip, lsr r0

300027c8 <strsep>:
300027c8:	e92d4800 	push	{fp, lr}
300027cc:	e28db004 	add	fp, sp, #4
300027d0:	e24dd010 	sub	sp, sp, #16
300027d4:	e50b0010 	str	r0, [fp, #-16]
300027d8:	e50b1014 	str	r1, [fp, #-20]	; 0xffffffec
300027dc:	e51b3010 	ldr	r3, [fp, #-16]
300027e0:	e5933000 	ldr	r3, [r3]
300027e4:	e50b300c 	str	r3, [fp, #-12]
300027e8:	e51b300c 	ldr	r3, [fp, #-12]
300027ec:	e3530000 	cmp	r3, #0
300027f0:	1a000001 	bne	300027fc <strsep+0x34>
300027f4:	e3a03000 	mov	r3, #0
300027f8:	ea00000f 	b	3000283c <strsep+0x74>
300027fc:	e51b000c 	ldr	r0, [fp, #-12]
30002800:	e51b1014 	ldr	r1, [fp, #-20]	; 0xffffffec
30002804:	ebffff8e 	bl	30002644 <strpbrk>
30002808:	e50b0008 	str	r0, [fp, #-8]
3000280c:	e51b3008 	ldr	r3, [fp, #-8]
30002810:	e3530000 	cmp	r3, #0
30002814:	0a000004 	beq	3000282c <strsep+0x64>
30002818:	e51b3008 	ldr	r3, [fp, #-8]
3000281c:	e2832001 	add	r2, r3, #1
30002820:	e50b2008 	str	r2, [fp, #-8]
30002824:	e3a02000 	mov	r2, #0
30002828:	e5c32000 	strb	r2, [r3]
3000282c:	e51b3010 	ldr	r3, [fp, #-16]
30002830:	e51b2008 	ldr	r2, [fp, #-8]
30002834:	e5832000 	str	r2, [r3]
30002838:	e51b300c 	ldr	r3, [fp, #-12]
3000283c:	e1a00003 	mov	r0, r3
30002840:	e24bd004 	sub	sp, fp, #4
30002844:	e8bd4800 	pop	{fp, lr}
30002848:	e12fff1e 	bx	lr

3000284c <memset>:
3000284c:	e52db004 	push	{fp}		; (str fp, [sp, #-4]!)
30002850:	e28db000 	add	fp, sp, #0
30002854:	e24dd01c 	sub	sp, sp, #28
30002858:	e50b0010 	str	r0, [fp, #-16]
3000285c:	e50b1014 	str	r1, [fp, #-20]	; 0xffffffec
30002860:	e50b2018 	str	r2, [fp, #-24]	; 0xffffffe8
30002864:	e51b3010 	ldr	r3, [fp, #-16]
30002868:	e50b3008 	str	r3, [fp, #-8]
3000286c:	ea000005 	b	30002888 <memset+0x3c>
30002870:	e51b3008 	ldr	r3, [fp, #-8]
30002874:	e2832001 	add	r2, r3, #1
30002878:	e50b2008 	str	r2, [fp, #-8]
3000287c:	e51b2014 	ldr	r2, [fp, #-20]	; 0xffffffec
30002880:	e20220ff 	and	r2, r2, #255	; 0xff
30002884:	e5c32000 	strb	r2, [r3]
30002888:	e51b3018 	ldr	r3, [fp, #-24]	; 0xffffffe8
3000288c:	e2432001 	sub	r2, r3, #1
30002890:	e50b2018 	str	r2, [fp, #-24]	; 0xffffffe8
30002894:	e3530000 	cmp	r3, #0
30002898:	1afffff4 	bne	30002870 <memset+0x24>
3000289c:	e51b3010 	ldr	r3, [fp, #-16]
300028a0:	e1a00003 	mov	r0, r3
300028a4:	e24bd000 	sub	sp, fp, #0
300028a8:	e49db004 	pop	{fp}		; (ldr fp, [sp], #4)
300028ac:	e12fff1e 	bx	lr

300028b0 <bcopy>:
300028b0:	e52db004 	push	{fp}		; (str fp, [sp, #-4]!)
300028b4:	e28db000 	add	fp, sp, #0
300028b8:	e24dd01c 	sub	sp, sp, #28
300028bc:	e50b0010 	str	r0, [fp, #-16]
300028c0:	e50b1014 	str	r1, [fp, #-20]	; 0xffffffec
300028c4:	e50b2018 	str	r2, [fp, #-24]	; 0xffffffe8
300028c8:	e51b3014 	ldr	r3, [fp, #-20]	; 0xffffffec
300028cc:	e50b3008 	str	r3, [fp, #-8]
300028d0:	e51b3010 	ldr	r3, [fp, #-16]
300028d4:	e50b300c 	str	r3, [fp, #-12]
300028d8:	ea000007 	b	300028fc <bcopy+0x4c>
300028dc:	e51b3008 	ldr	r3, [fp, #-8]
300028e0:	e2832001 	add	r2, r3, #1
300028e4:	e50b2008 	str	r2, [fp, #-8]
300028e8:	e51b200c 	ldr	r2, [fp, #-12]
300028ec:	e2821001 	add	r1, r2, #1
300028f0:	e50b100c 	str	r1, [fp, #-12]
300028f4:	e5d22000 	ldrb	r2, [r2]
300028f8:	e5c32000 	strb	r2, [r3]
300028fc:	e51b3018 	ldr	r3, [fp, #-24]	; 0xffffffe8
30002900:	e2432001 	sub	r2, r3, #1
30002904:	e50b2018 	str	r2, [fp, #-24]	; 0xffffffe8
30002908:	e3530000 	cmp	r3, #0
3000290c:	1afffff2 	bne	300028dc <bcopy+0x2c>
30002910:	e24bd000 	sub	sp, fp, #0
30002914:	e49db004 	pop	{fp}		; (ldr fp, [sp], #4)
30002918:	e12fff1e 	bx	lr

3000291c <memcpy>:
3000291c:	e52db004 	push	{fp}		; (str fp, [sp, #-4]!)
30002920:	e28db000 	add	fp, sp, #0
30002924:	e24dd01c 	sub	sp, sp, #28
30002928:	e50b0010 	str	r0, [fp, #-16]
3000292c:	e50b1014 	str	r1, [fp, #-20]	; 0xffffffec
30002930:	e50b2018 	str	r2, [fp, #-24]	; 0xffffffe8
30002934:	e51b3010 	ldr	r3, [fp, #-16]
30002938:	e50b3008 	str	r3, [fp, #-8]
3000293c:	e51b3014 	ldr	r3, [fp, #-20]	; 0xffffffec
30002940:	e50b300c 	str	r3, [fp, #-12]
30002944:	ea000007 	b	30002968 <memcpy+0x4c>
30002948:	e51b3008 	ldr	r3, [fp, #-8]
3000294c:	e2832001 	add	r2, r3, #1
30002950:	e50b2008 	str	r2, [fp, #-8]
30002954:	e51b200c 	ldr	r2, [fp, #-12]
30002958:	e2821001 	add	r1, r2, #1
3000295c:	e50b100c 	str	r1, [fp, #-12]
30002960:	e5d22000 	ldrb	r2, [r2]
30002964:	e5c32000 	strb	r2, [r3]
30002968:	e51b3018 	ldr	r3, [fp, #-24]	; 0xffffffe8
3000296c:	e2432001 	sub	r2, r3, #1
30002970:	e50b2018 	str	r2, [fp, #-24]	; 0xffffffe8
30002974:	e3530000 	cmp	r3, #0
30002978:	1afffff2 	bne	30002948 <memcpy+0x2c>
3000297c:	e51b3010 	ldr	r3, [fp, #-16]
30002980:	e1a00003 	mov	r0, r3
30002984:	e24bd000 	sub	sp, fp, #0
30002988:	e49db004 	pop	{fp}		; (ldr fp, [sp], #4)
3000298c:	e12fff1e 	bx	lr

30002990 <memmove>:
30002990:	e52db004 	push	{fp}		; (str fp, [sp, #-4]!)
30002994:	e28db000 	add	fp, sp, #0
30002998:	e24dd01c 	sub	sp, sp, #28
3000299c:	e50b0010 	str	r0, [fp, #-16]
300029a0:	e50b1014 	str	r1, [fp, #-20]	; 0xffffffec
300029a4:	e50b2018 	str	r2, [fp, #-24]	; 0xffffffe8
300029a8:	e51b2010 	ldr	r2, [fp, #-16]
300029ac:	e51b3014 	ldr	r3, [fp, #-20]	; 0xffffffec
300029b0:	e1520003 	cmp	r2, r3
300029b4:	8a000012 	bhi	30002a04 <memmove+0x74>
300029b8:	e51b3010 	ldr	r3, [fp, #-16]
300029bc:	e50b3008 	str	r3, [fp, #-8]
300029c0:	e51b3014 	ldr	r3, [fp, #-20]	; 0xffffffec
300029c4:	e50b300c 	str	r3, [fp, #-12]
300029c8:	ea000007 	b	300029ec <memmove+0x5c>
300029cc:	e51b3008 	ldr	r3, [fp, #-8]
300029d0:	e2832001 	add	r2, r3, #1
300029d4:	e50b2008 	str	r2, [fp, #-8]
300029d8:	e51b200c 	ldr	r2, [fp, #-12]
300029dc:	e2821001 	add	r1, r2, #1
300029e0:	e50b100c 	str	r1, [fp, #-12]
300029e4:	e5d22000 	ldrb	r2, [r2]
300029e8:	e5c32000 	strb	r2, [r3]
300029ec:	e51b3018 	ldr	r3, [fp, #-24]	; 0xffffffe8
300029f0:	e2432001 	sub	r2, r3, #1
300029f4:	e50b2018 	str	r2, [fp, #-24]	; 0xffffffe8
300029f8:	e3530000 	cmp	r3, #0
300029fc:	1afffff2 	bne	300029cc <memmove+0x3c>
30002a00:	ea000017 	b	30002a64 <memmove+0xd4>
30002a04:	e51b2010 	ldr	r2, [fp, #-16]
30002a08:	e51b3018 	ldr	r3, [fp, #-24]	; 0xffffffe8
30002a0c:	e0823003 	add	r3, r2, r3
30002a10:	e50b3008 	str	r3, [fp, #-8]
30002a14:	e51b2014 	ldr	r2, [fp, #-20]	; 0xffffffec
30002a18:	e51b3018 	ldr	r3, [fp, #-24]	; 0xffffffe8
30002a1c:	e0823003 	add	r3, r2, r3
30002a20:	e50b300c 	str	r3, [fp, #-12]
30002a24:	ea000009 	b	30002a50 <memmove+0xc0>
30002a28:	e51b3008 	ldr	r3, [fp, #-8]
30002a2c:	e2433001 	sub	r3, r3, #1
30002a30:	e50b3008 	str	r3, [fp, #-8]
30002a34:	e51b300c 	ldr	r3, [fp, #-12]
30002a38:	e2433001 	sub	r3, r3, #1
30002a3c:	e50b300c 	str	r3, [fp, #-12]
30002a40:	e51b300c 	ldr	r3, [fp, #-12]
30002a44:	e5d32000 	ldrb	r2, [r3]
30002a48:	e51b3008 	ldr	r3, [fp, #-8]
30002a4c:	e5c32000 	strb	r2, [r3]
30002a50:	e51b3018 	ldr	r3, [fp, #-24]	; 0xffffffe8
30002a54:	e2432001 	sub	r2, r3, #1
30002a58:	e50b2018 	str	r2, [fp, #-24]	; 0xffffffe8
30002a5c:	e3530000 	cmp	r3, #0
30002a60:	1afffff0 	bne	30002a28 <memmove+0x98>
30002a64:	e51b3010 	ldr	r3, [fp, #-16]
30002a68:	e1a00003 	mov	r0, r3
30002a6c:	e24bd000 	sub	sp, fp, #0
30002a70:	e49db004 	pop	{fp}		; (ldr fp, [sp], #4)
30002a74:	e12fff1e 	bx	lr

30002a78 <memcmp>:
30002a78:	e52db004 	push	{fp}		; (str fp, [sp, #-4]!)
30002a7c:	e28db000 	add	fp, sp, #0
30002a80:	e24dd024 	sub	sp, sp, #36	; 0x24
30002a84:	e50b0018 	str	r0, [fp, #-24]	; 0xffffffe8
30002a88:	e50b101c 	str	r1, [fp, #-28]	; 0xffffffe4
30002a8c:	e50b2020 	str	r2, [fp, #-32]	; 0xffffffe0
30002a90:	e3a03000 	mov	r3, #0
30002a94:	e50b3010 	str	r3, [fp, #-16]
30002a98:	e51b3018 	ldr	r3, [fp, #-24]	; 0xffffffe8
30002a9c:	e50b3008 	str	r3, [fp, #-8]
30002aa0:	e51b301c 	ldr	r3, [fp, #-28]	; 0xffffffe4
30002aa4:	e50b300c 	str	r3, [fp, #-12]
30002aa8:	ea000013 	b	30002afc <memcmp+0x84>
30002aac:	e51b3008 	ldr	r3, [fp, #-8]
30002ab0:	e5d33000 	ldrb	r3, [r3]
30002ab4:	e1a02003 	mov	r2, r3
30002ab8:	e51b300c 	ldr	r3, [fp, #-12]
30002abc:	e5d33000 	ldrb	r3, [r3]
30002ac0:	e0633002 	rsb	r3, r3, r2
30002ac4:	e50b3010 	str	r3, [fp, #-16]
30002ac8:	e51b3010 	ldr	r3, [fp, #-16]
30002acc:	e3530000 	cmp	r3, #0
30002ad0:	0a000000 	beq	30002ad8 <memcmp+0x60>
30002ad4:	ea00000b 	b	30002b08 <memcmp+0x90>
30002ad8:	e51b3008 	ldr	r3, [fp, #-8]
30002adc:	e2833001 	add	r3, r3, #1
30002ae0:	e50b3008 	str	r3, [fp, #-8]
30002ae4:	e51b300c 	ldr	r3, [fp, #-12]
30002ae8:	e2833001 	add	r3, r3, #1
30002aec:	e50b300c 	str	r3, [fp, #-12]
30002af0:	e51b3020 	ldr	r3, [fp, #-32]	; 0xffffffe0
30002af4:	e2433001 	sub	r3, r3, #1
30002af8:	e50b3020 	str	r3, [fp, #-32]	; 0xffffffe0
30002afc:	e51b3020 	ldr	r3, [fp, #-32]	; 0xffffffe0
30002b00:	e3530000 	cmp	r3, #0
30002b04:	1affffe8 	bne	30002aac <memcmp+0x34>
30002b08:	e51b3010 	ldr	r3, [fp, #-16]
30002b0c:	e1a00003 	mov	r0, r3
30002b10:	e24bd000 	sub	sp, fp, #0
30002b14:	e49db004 	pop	{fp}		; (ldr fp, [sp], #4)
30002b18:	e12fff1e 	bx	lr

30002b1c <memscan>:
30002b1c:	e52db004 	push	{fp}		; (str fp, [sp, #-4]!)
30002b20:	e28db000 	add	fp, sp, #0
30002b24:	e24dd01c 	sub	sp, sp, #28
30002b28:	e50b0010 	str	r0, [fp, #-16]
30002b2c:	e50b1014 	str	r1, [fp, #-20]	; 0xffffffec
30002b30:	e50b2018 	str	r2, [fp, #-24]	; 0xffffffe8
30002b34:	e51b3010 	ldr	r3, [fp, #-16]
30002b38:	e50b3008 	str	r3, [fp, #-8]
30002b3c:	ea00000d 	b	30002b78 <memscan+0x5c>
30002b40:	e51b3008 	ldr	r3, [fp, #-8]
30002b44:	e5d33000 	ldrb	r3, [r3]
30002b48:	e1a02003 	mov	r2, r3
30002b4c:	e51b3014 	ldr	r3, [fp, #-20]	; 0xffffffec
30002b50:	e1520003 	cmp	r2, r3
30002b54:	1a000001 	bne	30002b60 <memscan+0x44>
30002b58:	e51b3008 	ldr	r3, [fp, #-8]
30002b5c:	ea000009 	b	30002b88 <memscan+0x6c>
30002b60:	e51b3008 	ldr	r3, [fp, #-8]
30002b64:	e2833001 	add	r3, r3, #1
30002b68:	e50b3008 	str	r3, [fp, #-8]
30002b6c:	e51b3018 	ldr	r3, [fp, #-24]	; 0xffffffe8
30002b70:	e2433001 	sub	r3, r3, #1
30002b74:	e50b3018 	str	r3, [fp, #-24]	; 0xffffffe8
30002b78:	e51b3018 	ldr	r3, [fp, #-24]	; 0xffffffe8
30002b7c:	e3530000 	cmp	r3, #0
30002b80:	1affffee 	bne	30002b40 <memscan+0x24>
30002b84:	e51b3008 	ldr	r3, [fp, #-8]
30002b88:	e1a00003 	mov	r0, r3
30002b8c:	e24bd000 	sub	sp, fp, #0
30002b90:	e49db004 	pop	{fp}		; (ldr fp, [sp], #4)
30002b94:	e12fff1e 	bx	lr

30002b98 <strstr>:
30002b98:	e92d4800 	push	{fp, lr}
30002b9c:	e28db004 	add	fp, sp, #4
30002ba0:	e24dd010 	sub	sp, sp, #16
30002ba4:	e50b0010 	str	r0, [fp, #-16]
30002ba8:	e50b1014 	str	r1, [fp, #-20]	; 0xffffffec
30002bac:	e51b0014 	ldr	r0, [fp, #-20]	; 0xffffffec
30002bb0:	ebfffe43 	bl	300024c4 <strlen>
30002bb4:	e1a03000 	mov	r3, r0
30002bb8:	e50b300c 	str	r3, [fp, #-12]
30002bbc:	e51b300c 	ldr	r3, [fp, #-12]
30002bc0:	e3530000 	cmp	r3, #0
30002bc4:	1a000001 	bne	30002bd0 <strstr+0x38>
30002bc8:	e51b3010 	ldr	r3, [fp, #-16]
30002bcc:	ea000019 	b	30002c38 <strstr+0xa0>
30002bd0:	e51b0010 	ldr	r0, [fp, #-16]
30002bd4:	ebfffe3a 	bl	300024c4 <strlen>
30002bd8:	e1a03000 	mov	r3, r0
30002bdc:	e50b3008 	str	r3, [fp, #-8]
30002be0:	ea00000f 	b	30002c24 <strstr+0x8c>
30002be4:	e51b3008 	ldr	r3, [fp, #-8]
30002be8:	e2433001 	sub	r3, r3, #1
30002bec:	e50b3008 	str	r3, [fp, #-8]
30002bf0:	e51b300c 	ldr	r3, [fp, #-12]
30002bf4:	e51b0010 	ldr	r0, [fp, #-16]
30002bf8:	e51b1014 	ldr	r1, [fp, #-20]	; 0xffffffec
30002bfc:	e1a02003 	mov	r2, r3
30002c00:	ebffff9c 	bl	30002a78 <memcmp>
30002c04:	e1a03000 	mov	r3, r0
30002c08:	e3530000 	cmp	r3, #0
30002c0c:	1a000001 	bne	30002c18 <strstr+0x80>
30002c10:	e51b3010 	ldr	r3, [fp, #-16]
30002c14:	ea000007 	b	30002c38 <strstr+0xa0>
30002c18:	e51b3010 	ldr	r3, [fp, #-16]
30002c1c:	e2833001 	add	r3, r3, #1
30002c20:	e50b3010 	str	r3, [fp, #-16]
30002c24:	e51b2008 	ldr	r2, [fp, #-8]
30002c28:	e51b300c 	ldr	r3, [fp, #-12]
30002c2c:	e1520003 	cmp	r2, r3
30002c30:	aaffffeb 	bge	30002be4 <strstr+0x4c>
30002c34:	e3a03000 	mov	r3, #0
30002c38:	e1a00003 	mov	r0, r3
30002c3c:	e24bd004 	sub	sp, fp, #4
30002c40:	e8bd4800 	pop	{fp, lr}
30002c44:	e12fff1e 	bx	lr

30002c48 <memchr>:
30002c48:	e52db004 	push	{fp}		; (str fp, [sp, #-4]!)
30002c4c:	e28db000 	add	fp, sp, #0
30002c50:	e24dd01c 	sub	sp, sp, #28
30002c54:	e50b0010 	str	r0, [fp, #-16]
30002c58:	e50b1014 	str	r1, [fp, #-20]	; 0xffffffec
30002c5c:	e50b2018 	str	r2, [fp, #-24]	; 0xffffffe8
30002c60:	e51b3010 	ldr	r3, [fp, #-16]
30002c64:	e50b3008 	str	r3, [fp, #-8]
30002c68:	ea00000a 	b	30002c98 <memchr+0x50>
30002c6c:	e51b3014 	ldr	r3, [fp, #-20]	; 0xffffffec
30002c70:	e20320ff 	and	r2, r3, #255	; 0xff
30002c74:	e51b3008 	ldr	r3, [fp, #-8]
30002c78:	e2831001 	add	r1, r3, #1
30002c7c:	e50b1008 	str	r1, [fp, #-8]
30002c80:	e5d33000 	ldrb	r3, [r3]
30002c84:	e1520003 	cmp	r2, r3
30002c88:	1a000002 	bne	30002c98 <memchr+0x50>
30002c8c:	e51b3008 	ldr	r3, [fp, #-8]
30002c90:	e2433001 	sub	r3, r3, #1
30002c94:	ea000005 	b	30002cb0 <memchr+0x68>
30002c98:	e51b3018 	ldr	r3, [fp, #-24]	; 0xffffffe8
30002c9c:	e2432001 	sub	r2, r3, #1
30002ca0:	e50b2018 	str	r2, [fp, #-24]	; 0xffffffe8
30002ca4:	e3530000 	cmp	r3, #0
30002ca8:	1affffef 	bne	30002c6c <memchr+0x24>
30002cac:	e3a03000 	mov	r3, #0
30002cb0:	e1a00003 	mov	r0, r3
30002cb4:	e24bd000 	sub	sp, fp, #0
30002cb8:	e49db004 	pop	{fp}		; (ldr fp, [sp], #4)
30002cbc:	e12fff1e 	bx	lr

30002cc0 <uart_init>:
30002cc0:	e52db004 	push	{fp}		; (str fp, [sp, #-4]!)
30002cc4:	e28db000 	add	fp, sp, #0
30002cc8:	e59f3074 	ldr	r3, [pc, #116]	; 30002d44 <uart_init+0x84>
30002ccc:	e3a020a0 	mov	r2, #160	; 0xa0
30002cd0:	e5832000 	str	r2, [r3]
30002cd4:	e59f306c 	ldr	r3, [pc, #108]	; 30002d48 <uart_init+0x88>
30002cd8:	e3a0200c 	mov	r2, #12
30002cdc:	e5832000 	str	r2, [r3]
30002ce0:	e59f2064 	ldr	r2, [pc, #100]	; 30002d4c <uart_init+0x8c>
30002ce4:	e59f3060 	ldr	r3, [pc, #96]	; 30002d4c <uart_init+0x8c>
30002ce8:	e5933000 	ldr	r3, [r3]
30002cec:	e3833b01 	orr	r3, r3, #1024	; 0x400
30002cf0:	e5823000 	str	r3, [r2]
30002cf4:	e3a02205 	mov	r2, #1342177280	; 0x50000000
30002cf8:	e3a03205 	mov	r3, #1342177280	; 0x50000000
30002cfc:	e5933000 	ldr	r3, [r3]
30002d00:	e3833003 	orr	r3, r3, #3
30002d04:	e5823000 	str	r3, [r2]
30002d08:	e3a03245 	mov	r3, #1342177284	; 0x50000004
30002d0c:	e3a02005 	mov	r2, #5
30002d10:	e5832000 	str	r2, [r3]
30002d14:	e59f3034 	ldr	r3, [pc, #52]	; 30002d50 <uart_init+0x90>
30002d18:	e3a0201a 	mov	r2, #26
30002d1c:	e5832000 	str	r2, [r3]
30002d20:	e3a03285 	mov	r3, #1342177288	; 0x50000008
30002d24:	e3a02000 	mov	r2, #0
30002d28:	e5832000 	str	r2, [r3]
30002d2c:	e3a032c5 	mov	r3, #1342177292	; 0x5000000c
30002d30:	e3a02000 	mov	r2, #0
30002d34:	e5832000 	str	r2, [r3]
30002d38:	e24bd000 	sub	sp, fp, #0
30002d3c:	e49db004 	pop	{fp}		; (ldr fp, [sp], #4)
30002d40:	e12fff1e 	bx	lr
30002d44:	56000070 			; <UNDEFINED> instruction: 0x56000070
30002d48:	56000078 			; <UNDEFINED> instruction: 0x56000078
30002d4c:	4c00000c 	stcmi	0, cr0, [r0], {12}
30002d50:	50000028 	andpl	r0, r0, r8, lsr #32

30002d54 <uart_send_byte>:
30002d54:	e52db004 	push	{fp}		; (str fp, [sp, #-4]!)
30002d58:	e28db000 	add	fp, sp, #0
30002d5c:	e24dd00c 	sub	sp, sp, #12
30002d60:	e1a03000 	mov	r3, r0
30002d64:	e54b3005 	strb	r3, [fp, #-5]
30002d68:	e1a00000 	nop			; (mov r0, r0)
30002d6c:	e59f3024 	ldr	r3, [pc, #36]	; 30002d98 <uart_send_byte+0x44>
30002d70:	e5933000 	ldr	r3, [r3]
30002d74:	e2033004 	and	r3, r3, #4
30002d78:	e3530000 	cmp	r3, #0
30002d7c:	0afffffa 	beq	30002d6c <uart_send_byte+0x18>
30002d80:	e59f2014 	ldr	r2, [pc, #20]	; 30002d9c <uart_send_byte+0x48>
30002d84:	e55b3005 	ldrb	r3, [fp, #-5]
30002d88:	e5823000 	str	r3, [r2]
30002d8c:	e24bd000 	sub	sp, fp, #0
30002d90:	e49db004 	pop	{fp}		; (ldr fp, [sp], #4)
30002d94:	e12fff1e 	bx	lr
30002d98:	50000010 	andpl	r0, r0, r0, lsl r0
30002d9c:	50000020 	andpl	r0, r0, r0, lsr #32

30002da0 <uart_recive_byte>:
30002da0:	e52db004 	push	{fp}		; (str fp, [sp, #-4]!)
30002da4:	e28db000 	add	fp, sp, #0
30002da8:	e24dd00c 	sub	sp, sp, #12
30002dac:	e1a00000 	nop			; (mov r0, r0)
30002db0:	e59f302c 	ldr	r3, [pc, #44]	; 30002de4 <uart_recive_byte+0x44>
30002db4:	e5933000 	ldr	r3, [r3]
30002db8:	e2033001 	and	r3, r3, #1
30002dbc:	e3530000 	cmp	r3, #0
30002dc0:	0afffffa 	beq	30002db0 <uart_recive_byte+0x10>
30002dc4:	e59f301c 	ldr	r3, [pc, #28]	; 30002de8 <uart_recive_byte+0x48>
30002dc8:	e5933000 	ldr	r3, [r3]
30002dcc:	e54b3005 	strb	r3, [fp, #-5]
30002dd0:	e55b3005 	ldrb	r3, [fp, #-5]
30002dd4:	e1a00003 	mov	r0, r3
30002dd8:	e24bd000 	sub	sp, fp, #0
30002ddc:	e49db004 	pop	{fp}		; (ldr fp, [sp], #4)
30002de0:	e12fff1e 	bx	lr
30002de4:	50000010 	andpl	r0, r0, r0, lsl r0
30002de8:	50000024 	andpl	r0, r0, r4, lsr #32

30002dec <print>:
30002dec:	e92d4800 	push	{fp, lr}
30002df0:	e28db004 	add	fp, sp, #4
30002df4:	e24dd008 	sub	sp, sp, #8
30002df8:	e50b0008 	str	r0, [fp, #-8]
30002dfc:	ea000005 	b	30002e18 <print+0x2c>
30002e00:	e51b3008 	ldr	r3, [fp, #-8]
30002e04:	e2832001 	add	r2, r3, #1
30002e08:	e50b2008 	str	r2, [fp, #-8]
30002e0c:	e5d33000 	ldrb	r3, [r3]
30002e10:	e1a00003 	mov	r0, r3
30002e14:	ebffffce 	bl	30002d54 <uart_send_byte>
30002e18:	e51b3008 	ldr	r3, [fp, #-8]
30002e1c:	e5d33000 	ldrb	r3, [r3]
30002e20:	e3530000 	cmp	r3, #0
30002e24:	1afffff5 	bne	30002e00 <print+0x14>
30002e28:	e3a0000a 	mov	r0, #10
30002e2c:	ebffffc8 	bl	30002d54 <uart_send_byte>
30002e30:	e24bd004 	sub	sp, fp, #4
30002e34:	e8bd4800 	pop	{fp, lr}
30002e38:	e12fff1e 	bx	lr

30002e3c <put_a_char>:
30002e3c:	e92d4800 	push	{fp, lr}
30002e40:	e28db004 	add	fp, sp, #4
30002e44:	e24dd008 	sub	sp, sp, #8
30002e48:	e1a03000 	mov	r3, r0
30002e4c:	e54b3005 	strb	r3, [fp, #-5]
30002e50:	e55b3005 	ldrb	r3, [fp, #-5]
30002e54:	e1a00003 	mov	r0, r3
30002e58:	ebffffbd 	bl	30002d54 <uart_send_byte>
30002e5c:	e24bd004 	sub	sp, fp, #4
30002e60:	e8bd4800 	pop	{fp, lr}
30002e64:	e12fff1e 	bx	lr

30002e68 <scan>:
30002e68:	e92d4810 	push	{r4, fp, lr}
30002e6c:	e28db008 	add	fp, sp, #8
30002e70:	e24dd00c 	sub	sp, sp, #12
30002e74:	e3a03000 	mov	r3, #0
30002e78:	e54b300d 	strb	r3, [fp, #-13]
30002e7c:	e55b300d 	ldrb	r3, [fp, #-13]
30002e80:	e59f208c 	ldr	r2, [pc, #140]	; 30002f14 <scan+0xac>
30002e84:	e0834002 	add	r4, r3, r2
30002e88:	ebffffc4 	bl	30002da0 <uart_recive_byte>
30002e8c:	e1a03000 	mov	r3, r0
30002e90:	e5c43000 	strb	r3, [r4]
30002e94:	e55b300d 	ldrb	r3, [fp, #-13]
30002e98:	e59f2074 	ldr	r2, [pc, #116]	; 30002f14 <scan+0xac>
30002e9c:	e0833002 	add	r3, r3, r2
30002ea0:	e5d33000 	ldrb	r3, [r3]
30002ea4:	e1a00003 	mov	r0, r3
30002ea8:	ebffffa9 	bl	30002d54 <uart_send_byte>
30002eac:	e55b300d 	ldrb	r3, [fp, #-13]
30002eb0:	e59f205c 	ldr	r2, [pc, #92]	; 30002f14 <scan+0xac>
30002eb4:	e0833002 	add	r3, r3, r2
30002eb8:	e5d33000 	ldrb	r3, [r3]
30002ebc:	e353000d 	cmp	r3, #13
30002ec0:	1a000000 	bne	30002ec8 <scan+0x60>
30002ec4:	ea000003 	b	30002ed8 <scan+0x70>
30002ec8:	e55b300d 	ldrb	r3, [fp, #-13]
30002ecc:	e2833001 	add	r3, r3, #1
30002ed0:	e54b300d 	strb	r3, [fp, #-13]
30002ed4:	eaffffe8 	b	30002e7c <scan+0x14>
30002ed8:	e55b300d 	ldrb	r3, [fp, #-13]
30002edc:	e2833001 	add	r3, r3, #1
30002ee0:	e59f202c 	ldr	r2, [pc, #44]	; 30002f14 <scan+0xac>
30002ee4:	e0833002 	add	r3, r3, r2
30002ee8:	e3a0200a 	mov	r2, #10
30002eec:	e5c32000 	strb	r2, [r3]
30002ef0:	e3a0000d 	mov	r0, #13
30002ef4:	ebffff96 	bl	30002d54 <uart_send_byte>
30002ef8:	e3a0000a 	mov	r0, #10
30002efc:	ebffff94 	bl	30002d54 <uart_send_byte>
30002f00:	e59f300c 	ldr	r3, [pc, #12]	; 30002f14 <scan+0xac>
30002f04:	e1a00003 	mov	r0, r3
30002f08:	e24bd008 	sub	sp, fp, #8
30002f0c:	e8bd4810 	pop	{r4, fp, lr}
30002f10:	e12fff1e 	bx	lr
30002f14:	30008fe8 	andcc	r8, r0, r8, ror #31

30002f18 <str_cmp>:
30002f18:	e92d4800 	push	{fp, lr}
30002f1c:	e28db004 	add	fp, sp, #4
30002f20:	e24dd018 	sub	sp, sp, #24
30002f24:	e50b0018 	str	r0, [fp, #-24]	; 0xffffffe8
30002f28:	e50b101c 	str	r1, [fp, #-28]	; 0xffffffe4
30002f2c:	e3a03000 	mov	r3, #0
30002f30:	e50b3008 	str	r3, [fp, #-8]
30002f34:	e51b0018 	ldr	r0, [fp, #-24]	; 0xffffffe8
30002f38:	eb000024 	bl	30002fd0 <str_len>
30002f3c:	e50b000c 	str	r0, [fp, #-12]
30002f40:	e51b001c 	ldr	r0, [fp, #-28]	; 0xffffffe4
30002f44:	eb000021 	bl	30002fd0 <str_len>
30002f48:	e50b0010 	str	r0, [fp, #-16]
30002f4c:	e51b200c 	ldr	r2, [fp, #-12]
30002f50:	e51b3010 	ldr	r3, [fp, #-16]
30002f54:	e1520003 	cmp	r2, r3
30002f58:	0a000001 	beq	30002f64 <str_cmp+0x4c>
30002f5c:	e3a03000 	mov	r3, #0
30002f60:	ea000016 	b	30002fc0 <str_cmp+0xa8>
30002f64:	ea00000e 	b	30002fa4 <str_cmp+0x8c>
30002f68:	e51b3008 	ldr	r3, [fp, #-8]
30002f6c:	e51b2018 	ldr	r2, [fp, #-24]	; 0xffffffe8
30002f70:	e0823003 	add	r3, r2, r3
30002f74:	e5d32000 	ldrb	r2, [r3]
30002f78:	e51b3008 	ldr	r3, [fp, #-8]
30002f7c:	e51b101c 	ldr	r1, [fp, #-28]	; 0xffffffe4
30002f80:	e0813003 	add	r3, r1, r3
30002f84:	e5d33000 	ldrb	r3, [r3]
30002f88:	e1520003 	cmp	r2, r3
30002f8c:	0a000001 	beq	30002f98 <str_cmp+0x80>
30002f90:	e3a03000 	mov	r3, #0
30002f94:	ea000009 	b	30002fc0 <str_cmp+0xa8>
30002f98:	e51b3008 	ldr	r3, [fp, #-8]
30002f9c:	e2833001 	add	r3, r3, #1
30002fa0:	e50b3008 	str	r3, [fp, #-8]
30002fa4:	e51b3008 	ldr	r3, [fp, #-8]
30002fa8:	e51b2018 	ldr	r2, [fp, #-24]	; 0xffffffe8
30002fac:	e0823003 	add	r3, r2, r3
30002fb0:	e5d33000 	ldrb	r3, [r3]
30002fb4:	e353000a 	cmp	r3, #10
30002fb8:	1affffea 	bne	30002f68 <str_cmp+0x50>
30002fbc:	e3a03001 	mov	r3, #1
30002fc0:	e1a00003 	mov	r0, r3
30002fc4:	e24bd004 	sub	sp, fp, #4
30002fc8:	e8bd4800 	pop	{fp, lr}
30002fcc:	e12fff1e 	bx	lr

30002fd0 <str_len>:
30002fd0:	e52db004 	push	{fp}		; (str fp, [sp, #-4]!)
30002fd4:	e28db000 	add	fp, sp, #0
30002fd8:	e24dd014 	sub	sp, sp, #20
30002fdc:	e50b0010 	str	r0, [fp, #-16]
30002fe0:	e3a03000 	mov	r3, #0
30002fe4:	e50b3008 	str	r3, [fp, #-8]
30002fe8:	ea000002 	b	30002ff8 <str_len+0x28>
30002fec:	e51b3008 	ldr	r3, [fp, #-8]
30002ff0:	e2833001 	add	r3, r3, #1
30002ff4:	e50b3008 	str	r3, [fp, #-8]
30002ff8:	e51b2010 	ldr	r2, [fp, #-16]
30002ffc:	e51b3008 	ldr	r3, [fp, #-8]
30003000:	e0823003 	add	r3, r2, r3
30003004:	e5d33000 	ldrb	r3, [r3]
30003008:	e353000d 	cmp	r3, #13
3000300c:	1afffff6 	bne	30002fec <str_len+0x1c>
30003010:	e51b3008 	ldr	r3, [fp, #-8]
30003014:	e1a00003 	mov	r0, r3
30003018:	e24bd000 	sub	sp, fp, #0
3000301c:	e49db004 	pop	{fp}		; (ldr fp, [sp], #4)
30003020:	e12fff1e 	bx	lr

30003024 <__toupper>:
30003024:	e52db004 	push	{fp}		; (str fp, [sp, #-4]!)
30003028:	e28db000 	add	fp, sp, #0
3000302c:	e24dd00c 	sub	sp, sp, #12
30003030:	e1a03000 	mov	r3, r0
30003034:	e54b3005 	strb	r3, [fp, #-5]
30003038:	e55b3005 	ldrb	r3, [fp, #-5]
3000303c:	e59f202c 	ldr	r2, [pc, #44]	; 30003070 <__toupper+0x4c>
30003040:	e7d23003 	ldrb	r3, [r2, r3]
30003044:	e2033002 	and	r3, r3, #2
30003048:	e3530000 	cmp	r3, #0
3000304c:	0a000002 	beq	3000305c <__toupper+0x38>
30003050:	e55b3005 	ldrb	r3, [fp, #-5]
30003054:	e2433020 	sub	r3, r3, #32
30003058:	e54b3005 	strb	r3, [fp, #-5]
3000305c:	e55b3005 	ldrb	r3, [fp, #-5]
30003060:	e1a00003 	mov	r0, r3
30003064:	e24bd000 	sub	sp, fp, #0
30003068:	e49db004 	pop	{fp}		; (ldr fp, [sp], #4)
3000306c:	e12fff1e 	bx	lr
30003070:	300056d0 	ldrdcc	r5, [r0], -r0

30003074 <simple_strtoul>:
30003074:	e92d4800 	push	{fp, lr}
30003078:	e28db004 	add	fp, sp, #4
3000307c:	e24dd018 	sub	sp, sp, #24
30003080:	e50b0010 	str	r0, [fp, #-16]
30003084:	e50b1014 	str	r1, [fp, #-20]	; 0xffffffec
30003088:	e50b2018 	str	r2, [fp, #-24]	; 0xffffffe8
3000308c:	e3a03000 	mov	r3, #0
30003090:	e50b3008 	str	r3, [fp, #-8]
30003094:	e51b3018 	ldr	r3, [fp, #-24]	; 0xffffffe8
30003098:	e3530000 	cmp	r3, #0
3000309c:	1a000020 	bne	30003124 <simple_strtoul+0xb0>
300030a0:	e3a0300a 	mov	r3, #10
300030a4:	e50b3018 	str	r3, [fp, #-24]	; 0xffffffe8
300030a8:	e51b3010 	ldr	r3, [fp, #-16]
300030ac:	e5d33000 	ldrb	r3, [r3]
300030b0:	e3530030 	cmp	r3, #48	; 0x30
300030b4:	1a00002c 	bne	3000316c <simple_strtoul+0xf8>
300030b8:	e3a03008 	mov	r3, #8
300030bc:	e50b3018 	str	r3, [fp, #-24]	; 0xffffffe8
300030c0:	e51b3010 	ldr	r3, [fp, #-16]
300030c4:	e2833001 	add	r3, r3, #1
300030c8:	e50b3010 	str	r3, [fp, #-16]
300030cc:	e51b3010 	ldr	r3, [fp, #-16]
300030d0:	e5d33000 	ldrb	r3, [r3]
300030d4:	e1a00003 	mov	r0, r3
300030d8:	ebffffd1 	bl	30003024 <__toupper>
300030dc:	e1a03000 	mov	r3, r0
300030e0:	e3530058 	cmp	r3, #88	; 0x58
300030e4:	1a000020 	bne	3000316c <simple_strtoul+0xf8>
300030e8:	e51b3010 	ldr	r3, [fp, #-16]
300030ec:	e2833001 	add	r3, r3, #1
300030f0:	e5d33000 	ldrb	r3, [r3]
300030f4:	e1a02003 	mov	r2, r3
300030f8:	e59f313c 	ldr	r3, [pc, #316]	; 3000323c <simple_strtoul+0x1c8>
300030fc:	e7d33002 	ldrb	r3, [r3, r2]
30003100:	e2033044 	and	r3, r3, #68	; 0x44
30003104:	e3530000 	cmp	r3, #0
30003108:	0a000017 	beq	3000316c <simple_strtoul+0xf8>
3000310c:	e51b3010 	ldr	r3, [fp, #-16]
30003110:	e2833001 	add	r3, r3, #1
30003114:	e50b3010 	str	r3, [fp, #-16]
30003118:	e3a03010 	mov	r3, #16
3000311c:	e50b3018 	str	r3, [fp, #-24]	; 0xffffffe8
30003120:	ea00001b 	b	30003194 <simple_strtoul+0x120>
30003124:	e51b3018 	ldr	r3, [fp, #-24]	; 0xffffffe8
30003128:	e3530010 	cmp	r3, #16
3000312c:	1a00000e 	bne	3000316c <simple_strtoul+0xf8>
30003130:	e51b3010 	ldr	r3, [fp, #-16]
30003134:	e5d33000 	ldrb	r3, [r3]
30003138:	e3530030 	cmp	r3, #48	; 0x30
3000313c:	1a00000a 	bne	3000316c <simple_strtoul+0xf8>
30003140:	e51b3010 	ldr	r3, [fp, #-16]
30003144:	e2833001 	add	r3, r3, #1
30003148:	e5d33000 	ldrb	r3, [r3]
3000314c:	e1a00003 	mov	r0, r3
30003150:	ebffffb3 	bl	30003024 <__toupper>
30003154:	e1a03000 	mov	r3, r0
30003158:	e3530058 	cmp	r3, #88	; 0x58
3000315c:	1a000002 	bne	3000316c <simple_strtoul+0xf8>
30003160:	e51b3010 	ldr	r3, [fp, #-16]
30003164:	e2833002 	add	r3, r3, #2
30003168:	e50b3010 	str	r3, [fp, #-16]
3000316c:	ea000008 	b	30003194 <simple_strtoul+0x120>
30003170:	e51b3008 	ldr	r3, [fp, #-8]
30003174:	e51b2018 	ldr	r2, [fp, #-24]	; 0xffffffe8
30003178:	e0020293 	mul	r2, r3, r2
3000317c:	e51b300c 	ldr	r3, [fp, #-12]
30003180:	e0823003 	add	r3, r2, r3
30003184:	e50b3008 	str	r3, [fp, #-8]
30003188:	e51b3010 	ldr	r3, [fp, #-16]
3000318c:	e2833001 	add	r3, r3, #1
30003190:	e50b3010 	str	r3, [fp, #-16]
30003194:	e51b3010 	ldr	r3, [fp, #-16]
30003198:	e5d33000 	ldrb	r3, [r3]
3000319c:	e1a02003 	mov	r2, r3
300031a0:	e59f3094 	ldr	r3, [pc, #148]	; 3000323c <simple_strtoul+0x1c8>
300031a4:	e7d33002 	ldrb	r3, [r3, r2]
300031a8:	e2033044 	and	r3, r3, #68	; 0x44
300031ac:	e3530000 	cmp	r3, #0
300031b0:	0a000016 	beq	30003210 <simple_strtoul+0x19c>
300031b4:	e51b3010 	ldr	r3, [fp, #-16]
300031b8:	e5d33000 	ldrb	r3, [r3]
300031bc:	e1a02003 	mov	r2, r3
300031c0:	e59f3074 	ldr	r3, [pc, #116]	; 3000323c <simple_strtoul+0x1c8>
300031c4:	e7d33002 	ldrb	r3, [r3, r2]
300031c8:	e2033004 	and	r3, r3, #4
300031cc:	e3530000 	cmp	r3, #0
300031d0:	0a000003 	beq	300031e4 <simple_strtoul+0x170>
300031d4:	e51b3010 	ldr	r3, [fp, #-16]
300031d8:	e5d33000 	ldrb	r3, [r3]
300031dc:	e2433030 	sub	r3, r3, #48	; 0x30
300031e0:	ea000005 	b	300031fc <simple_strtoul+0x188>
300031e4:	e51b3010 	ldr	r3, [fp, #-16]
300031e8:	e5d33000 	ldrb	r3, [r3]
300031ec:	e1a00003 	mov	r0, r3
300031f0:	ebffff8b 	bl	30003024 <__toupper>
300031f4:	e1a03000 	mov	r3, r0
300031f8:	e2433037 	sub	r3, r3, #55	; 0x37
300031fc:	e50b300c 	str	r3, [fp, #-12]
30003200:	e51b200c 	ldr	r2, [fp, #-12]
30003204:	e51b3018 	ldr	r3, [fp, #-24]	; 0xffffffe8
30003208:	e1520003 	cmp	r2, r3
3000320c:	3affffd7 	bcc	30003170 <simple_strtoul+0xfc>
30003210:	e51b3014 	ldr	r3, [fp, #-20]	; 0xffffffec
30003214:	e3530000 	cmp	r3, #0
30003218:	0a000002 	beq	30003228 <simple_strtoul+0x1b4>
3000321c:	e51b3014 	ldr	r3, [fp, #-20]	; 0xffffffec
30003220:	e51b2010 	ldr	r2, [fp, #-16]
30003224:	e5832000 	str	r2, [r3]
30003228:	e51b3008 	ldr	r3, [fp, #-8]
3000322c:	e1a00003 	mov	r0, r3
30003230:	e24bd004 	sub	sp, fp, #4
30003234:	e8bd4800 	pop	{fp, lr}
30003238:	e12fff1e 	bx	lr
3000323c:	300056d0 	ldrdcc	r5, [r0], -r0

30003240 <simple_strtol>:
30003240:	e92d4800 	push	{fp, lr}
30003244:	e28db004 	add	fp, sp, #4
30003248:	e24dd010 	sub	sp, sp, #16
3000324c:	e50b0008 	str	r0, [fp, #-8]
30003250:	e50b100c 	str	r1, [fp, #-12]
30003254:	e50b2010 	str	r2, [fp, #-16]
30003258:	e51b3008 	ldr	r3, [fp, #-8]
3000325c:	e5d33000 	ldrb	r3, [r3]
30003260:	e353002d 	cmp	r3, #45	; 0x2d
30003264:	1a000008 	bne	3000328c <simple_strtol+0x4c>
30003268:	e51b3008 	ldr	r3, [fp, #-8]
3000326c:	e2833001 	add	r3, r3, #1
30003270:	e1a00003 	mov	r0, r3
30003274:	e51b100c 	ldr	r1, [fp, #-12]
30003278:	e51b2010 	ldr	r2, [fp, #-16]
3000327c:	ebffff7c 	bl	30003074 <simple_strtoul>
30003280:	e1a03000 	mov	r3, r0
30003284:	e2633000 	rsb	r3, r3, #0
30003288:	ea000004 	b	300032a0 <simple_strtol+0x60>
3000328c:	e51b0008 	ldr	r0, [fp, #-8]
30003290:	e51b100c 	ldr	r1, [fp, #-12]
30003294:	e51b2010 	ldr	r2, [fp, #-16]
30003298:	ebffff75 	bl	30003074 <simple_strtoul>
3000329c:	e1a03000 	mov	r3, r0
300032a0:	e1a00003 	mov	r0, r3
300032a4:	e24bd004 	sub	sp, fp, #4
300032a8:	e8bd4800 	pop	{fp, lr}
300032ac:	e12fff1e 	bx	lr

300032b0 <simple_strtoull>:
300032b0:	e92d4810 	push	{r4, fp, lr}
300032b4:	e28db008 	add	fp, sp, #8
300032b8:	e24dd024 	sub	sp, sp, #36	; 0x24
300032bc:	e50b0020 	str	r0, [fp, #-32]	; 0xffffffe0
300032c0:	e50b1024 	str	r1, [fp, #-36]	; 0xffffffdc
300032c4:	e50b2028 	str	r2, [fp, #-40]	; 0xffffffd8
300032c8:	e3a03000 	mov	r3, #0
300032cc:	e3a04000 	mov	r4, #0
300032d0:	e50b3014 	str	r3, [fp, #-20]	; 0xffffffec
300032d4:	e50b4010 	str	r4, [fp, #-16]
300032d8:	e51b3028 	ldr	r3, [fp, #-40]	; 0xffffffd8
300032dc:	e3530000 	cmp	r3, #0
300032e0:	1a000020 	bne	30003368 <simple_strtoull+0xb8>
300032e4:	e3a0300a 	mov	r3, #10
300032e8:	e50b3028 	str	r3, [fp, #-40]	; 0xffffffd8
300032ec:	e51b3020 	ldr	r3, [fp, #-32]	; 0xffffffe0
300032f0:	e5d33000 	ldrb	r3, [r3]
300032f4:	e3530030 	cmp	r3, #48	; 0x30
300032f8:	1a00002c 	bne	300033b0 <simple_strtoull+0x100>
300032fc:	e3a03008 	mov	r3, #8
30003300:	e50b3028 	str	r3, [fp, #-40]	; 0xffffffd8
30003304:	e51b3020 	ldr	r3, [fp, #-32]	; 0xffffffe0
30003308:	e2833001 	add	r3, r3, #1
3000330c:	e50b3020 	str	r3, [fp, #-32]	; 0xffffffe0
30003310:	e51b3020 	ldr	r3, [fp, #-32]	; 0xffffffe0
30003314:	e5d33000 	ldrb	r3, [r3]
30003318:	e1a00003 	mov	r0, r3
3000331c:	ebffff40 	bl	30003024 <__toupper>
30003320:	e1a03000 	mov	r3, r0
30003324:	e3530058 	cmp	r3, #88	; 0x58
30003328:	1a000020 	bne	300033b0 <simple_strtoull+0x100>
3000332c:	e51b3020 	ldr	r3, [fp, #-32]	; 0xffffffe0
30003330:	e2833001 	add	r3, r3, #1
30003334:	e5d33000 	ldrb	r3, [r3]
30003338:	e1a02003 	mov	r2, r3
3000333c:	e59f31b4 	ldr	r3, [pc, #436]	; 300034f8 <simple_strtoull+0x248>
30003340:	e7d33002 	ldrb	r3, [r3, r2]
30003344:	e2033044 	and	r3, r3, #68	; 0x44
30003348:	e3530000 	cmp	r3, #0
3000334c:	0a000017 	beq	300033b0 <simple_strtoull+0x100>
30003350:	e51b3020 	ldr	r3, [fp, #-32]	; 0xffffffe0
30003354:	e2833001 	add	r3, r3, #1
30003358:	e50b3020 	str	r3, [fp, #-32]	; 0xffffffe0
3000335c:	e3a03010 	mov	r3, #16
30003360:	e50b3028 	str	r3, [fp, #-40]	; 0xffffffd8
30003364:	ea000026 	b	30003404 <simple_strtoull+0x154>
30003368:	e51b3028 	ldr	r3, [fp, #-40]	; 0xffffffd8
3000336c:	e3530010 	cmp	r3, #16
30003370:	1a00000e 	bne	300033b0 <simple_strtoull+0x100>
30003374:	e51b3020 	ldr	r3, [fp, #-32]	; 0xffffffe0
30003378:	e5d33000 	ldrb	r3, [r3]
3000337c:	e3530030 	cmp	r3, #48	; 0x30
30003380:	1a00000a 	bne	300033b0 <simple_strtoull+0x100>
30003384:	e51b3020 	ldr	r3, [fp, #-32]	; 0xffffffe0
30003388:	e2833001 	add	r3, r3, #1
3000338c:	e5d33000 	ldrb	r3, [r3]
30003390:	e1a00003 	mov	r0, r3
30003394:	ebffff22 	bl	30003024 <__toupper>
30003398:	e1a03000 	mov	r3, r0
3000339c:	e3530058 	cmp	r3, #88	; 0x58
300033a0:	1a000002 	bne	300033b0 <simple_strtoull+0x100>
300033a4:	e51b3020 	ldr	r3, [fp, #-32]	; 0xffffffe0
300033a8:	e2833002 	add	r3, r3, #2
300033ac:	e50b3020 	str	r3, [fp, #-32]	; 0xffffffe0
300033b0:	ea000013 	b	30003404 <simple_strtoull+0x154>
300033b4:	e51b3028 	ldr	r3, [fp, #-40]	; 0xffffffd8
300033b8:	e3a04000 	mov	r4, #0
300033bc:	e51b2014 	ldr	r2, [fp, #-20]	; 0xffffffec
300033c0:	e0010294 	mul	r1, r4, r2
300033c4:	e51b2010 	ldr	r2, [fp, #-16]
300033c8:	e0020293 	mul	r2, r3, r2
300033cc:	e0810002 	add	r0, r1, r2
300033d0:	e51bc014 	ldr	ip, [fp, #-20]	; 0xffffffec
300033d4:	e082139c 	umull	r1, r2, ip, r3
300033d8:	e0803002 	add	r3, r0, r2
300033dc:	e1a02003 	mov	r2, r3
300033e0:	e24b401c 	sub	r4, fp, #28
300033e4:	e8940018 	ldm	r4, {r3, r4}
300033e8:	e0933001 	adds	r3, r3, r1
300033ec:	e0a44002 	adc	r4, r4, r2
300033f0:	e50b3014 	str	r3, [fp, #-20]	; 0xffffffec
300033f4:	e50b4010 	str	r4, [fp, #-16]
300033f8:	e51b3020 	ldr	r3, [fp, #-32]	; 0xffffffe0
300033fc:	e2833001 	add	r3, r3, #1
30003400:	e50b3020 	str	r3, [fp, #-32]	; 0xffffffe0
30003404:	e51b3020 	ldr	r3, [fp, #-32]	; 0xffffffe0
30003408:	e5d33000 	ldrb	r3, [r3]
3000340c:	e1a02003 	mov	r2, r3
30003410:	e59f30e0 	ldr	r3, [pc, #224]	; 300034f8 <simple_strtoull+0x248>
30003414:	e7d33002 	ldrb	r3, [r3, r2]
30003418:	e2033044 	and	r3, r3, #68	; 0x44
3000341c:	e3530000 	cmp	r3, #0
30003420:	0a000027 	beq	300034c4 <simple_strtoull+0x214>
30003424:	e51b3020 	ldr	r3, [fp, #-32]	; 0xffffffe0
30003428:	e5d33000 	ldrb	r3, [r3]
3000342c:	e1a02003 	mov	r2, r3
30003430:	e59f30c0 	ldr	r3, [pc, #192]	; 300034f8 <simple_strtoull+0x248>
30003434:	e7d33002 	ldrb	r3, [r3, r2]
30003438:	e2033004 	and	r3, r3, #4
3000343c:	e3530000 	cmp	r3, #0
30003440:	0a000003 	beq	30003454 <simple_strtoull+0x1a4>
30003444:	e51b3020 	ldr	r3, [fp, #-32]	; 0xffffffe0
30003448:	e5d33000 	ldrb	r3, [r3]
3000344c:	e2433030 	sub	r3, r3, #48	; 0x30
30003450:	ea000011 	b	3000349c <simple_strtoull+0x1ec>
30003454:	e51b3020 	ldr	r3, [fp, #-32]	; 0xffffffe0
30003458:	e5d33000 	ldrb	r3, [r3]
3000345c:	e1a02003 	mov	r2, r3
30003460:	e59f3090 	ldr	r3, [pc, #144]	; 300034f8 <simple_strtoull+0x248>
30003464:	e7d33002 	ldrb	r3, [r3, r2]
30003468:	e2033002 	and	r3, r3, #2
3000346c:	e3530000 	cmp	r3, #0
30003470:	0a000006 	beq	30003490 <simple_strtoull+0x1e0>
30003474:	e51b3020 	ldr	r3, [fp, #-32]	; 0xffffffe0
30003478:	e5d33000 	ldrb	r3, [r3]
3000347c:	e1a00003 	mov	r0, r3
30003480:	ebfffee7 	bl	30003024 <__toupper>
30003484:	e1a03000 	mov	r3, r0
30003488:	e2433037 	sub	r3, r3, #55	; 0x37
3000348c:	ea000002 	b	3000349c <simple_strtoull+0x1ec>
30003490:	e51b3020 	ldr	r3, [fp, #-32]	; 0xffffffe0
30003494:	e5d33000 	ldrb	r3, [r3]
30003498:	e2433037 	sub	r3, r3, #55	; 0x37
3000349c:	e1a04fc3 	asr	r4, r3, #31
300034a0:	e50b301c 	str	r3, [fp, #-28]	; 0xffffffe4
300034a4:	e50b4018 	str	r4, [fp, #-24]	; 0xffffffe8
300034a8:	e51b3028 	ldr	r3, [fp, #-40]	; 0xffffffd8
300034ac:	e3a04000 	mov	r4, #0
300034b0:	e24b201c 	sub	r2, fp, #28
300034b4:	e8920006 	ldm	r2, {r1, r2}
300034b8:	e1520004 	cmp	r2, r4
300034bc:	01510003 	cmpeq	r1, r3
300034c0:	3affffbb 	bcc	300033b4 <simple_strtoull+0x104>
300034c4:	e51b3024 	ldr	r3, [fp, #-36]	; 0xffffffdc
300034c8:	e3530000 	cmp	r3, #0
300034cc:	0a000002 	beq	300034dc <simple_strtoull+0x22c>
300034d0:	e51b3024 	ldr	r3, [fp, #-36]	; 0xffffffdc
300034d4:	e51b2020 	ldr	r2, [fp, #-32]	; 0xffffffe0
300034d8:	e5832000 	str	r2, [r3]
300034dc:	e24b4014 	sub	r4, fp, #20
300034e0:	e8940018 	ldm	r4, {r3, r4}
300034e4:	e1a00003 	mov	r0, r3
300034e8:	e1a01004 	mov	r1, r4
300034ec:	e24bd008 	sub	sp, fp, #8
300034f0:	e8bd4810 	pop	{r4, fp, lr}
300034f4:	e12fff1e 	bx	lr
300034f8:	300056d0 	ldrdcc	r5, [r0], -r0

300034fc <simple_strtoll>:
300034fc:	e92d4810 	push	{r4, fp, lr}
30003500:	e28db008 	add	fp, sp, #8
30003504:	e24dd014 	sub	sp, sp, #20
30003508:	e50b0010 	str	r0, [fp, #-16]
3000350c:	e50b1014 	str	r1, [fp, #-20]	; 0xffffffec
30003510:	e50b2018 	str	r2, [fp, #-24]	; 0xffffffe8
30003514:	e51b3010 	ldr	r3, [fp, #-16]
30003518:	e5d33000 	ldrb	r3, [r3]
3000351c:	e353002d 	cmp	r3, #45	; 0x2d
30003520:	1a00000a 	bne	30003550 <simple_strtoll+0x54>
30003524:	e51b3010 	ldr	r3, [fp, #-16]
30003528:	e2833001 	add	r3, r3, #1
3000352c:	e1a00003 	mov	r0, r3
30003530:	e51b1014 	ldr	r1, [fp, #-20]	; 0xffffffec
30003534:	e51b2018 	ldr	r2, [fp, #-24]	; 0xffffffe8
30003538:	ebffff5c 	bl	300032b0 <simple_strtoull>
3000353c:	e1a03000 	mov	r3, r0
30003540:	e1a04001 	mov	r4, r1
30003544:	e2733000 	rsbs	r3, r3, #0
30003548:	e2e44000 	rsc	r4, r4, #0
3000354c:	ea000005 	b	30003568 <simple_strtoll+0x6c>
30003550:	e51b0010 	ldr	r0, [fp, #-16]
30003554:	e51b1014 	ldr	r1, [fp, #-20]	; 0xffffffec
30003558:	e51b2018 	ldr	r2, [fp, #-24]	; 0xffffffe8
3000355c:	ebffff53 	bl	300032b0 <simple_strtoull>
30003560:	e1a03000 	mov	r3, r0
30003564:	e1a04001 	mov	r4, r1
30003568:	e1a00003 	mov	r0, r3
3000356c:	e1a01004 	mov	r1, r4
30003570:	e24bd008 	sub	sp, fp, #8
30003574:	e8bd4810 	pop	{r4, fp, lr}
30003578:	e12fff1e 	bx	lr

3000357c <skip_atoi>:
3000357c:	e52db004 	push	{fp}		; (str fp, [sp, #-4]!)
30003580:	e28db000 	add	fp, sp, #0
30003584:	e24dd014 	sub	sp, sp, #20
30003588:	e50b0010 	str	r0, [fp, #-16]
3000358c:	e3a03000 	mov	r3, #0
30003590:	e50b3008 	str	r3, [fp, #-8]
30003594:	ea00000e 	b	300035d4 <skip_atoi+0x58>
30003598:	e51b2008 	ldr	r2, [fp, #-8]
3000359c:	e1a03002 	mov	r3, r2
300035a0:	e1a03103 	lsl	r3, r3, #2
300035a4:	e0833002 	add	r3, r3, r2
300035a8:	e1a03083 	lsl	r3, r3, #1
300035ac:	e1a00003 	mov	r0, r3
300035b0:	e51b3010 	ldr	r3, [fp, #-16]
300035b4:	e5933000 	ldr	r3, [r3]
300035b8:	e2831001 	add	r1, r3, #1
300035bc:	e51b2010 	ldr	r2, [fp, #-16]
300035c0:	e5821000 	str	r1, [r2]
300035c4:	e5d33000 	ldrb	r3, [r3]
300035c8:	e0803003 	add	r3, r0, r3
300035cc:	e2433030 	sub	r3, r3, #48	; 0x30
300035d0:	e50b3008 	str	r3, [fp, #-8]
300035d4:	e51b3010 	ldr	r3, [fp, #-16]
300035d8:	e5933000 	ldr	r3, [r3]
300035dc:	e5d33000 	ldrb	r3, [r3]
300035e0:	e1a02003 	mov	r2, r3
300035e4:	e59f3020 	ldr	r3, [pc, #32]	; 3000360c <skip_atoi+0x90>
300035e8:	e7d33002 	ldrb	r3, [r3, r2]
300035ec:	e2033004 	and	r3, r3, #4
300035f0:	e3530000 	cmp	r3, #0
300035f4:	1affffe7 	bne	30003598 <skip_atoi+0x1c>
300035f8:	e51b3008 	ldr	r3, [fp, #-8]
300035fc:	e1a00003 	mov	r0, r3
30003600:	e24bd000 	sub	sp, fp, #0
30003604:	e49db004 	pop	{fp}		; (ldr fp, [sp], #4)
30003608:	e12fff1e 	bx	lr
3000360c:	300056d0 	ldrdcc	r5, [r0], -r0

30003610 <number>:
30003610:	e92d4830 	push	{r4, r5, fp, lr}
30003614:	e28db00c 	add	fp, sp, #12
30003618:	e24dd060 	sub	sp, sp, #96	; 0x60
3000361c:	e50b0060 	str	r0, [fp, #-96]	; 0xffffffa0
30003620:	e50b1064 	str	r1, [fp, #-100]	; 0xffffff9c
30003624:	e50b206c 	str	r2, [fp, #-108]	; 0xffffff94
30003628:	e50b3068 	str	r3, [fp, #-104]	; 0xffffff98
3000362c:	e59b3010 	ldr	r3, [fp, #16]
30003630:	e2033040 	and	r3, r3, #64	; 0x40
30003634:	e3530000 	cmp	r3, #0
30003638:	0a000001 	beq	30003644 <number+0x34>
3000363c:	e59f3468 	ldr	r3, [pc, #1128]	; 30003aac <number+0x49c>
30003640:	ea000000 	b	30003648 <number+0x38>
30003644:	e59f3464 	ldr	r3, [pc, #1124]	; 30003ab0 <number+0x4a0>
30003648:	e50b3018 	str	r3, [fp, #-24]	; 0xffffffe8
3000364c:	e59b3010 	ldr	r3, [fp, #16]
30003650:	e2033010 	and	r3, r3, #16
30003654:	e3530000 	cmp	r3, #0
30003658:	0a000002 	beq	30003668 <number+0x58>
3000365c:	e59b3010 	ldr	r3, [fp, #16]
30003660:	e3c33001 	bic	r3, r3, #1
30003664:	e58b3010 	str	r3, [fp, #16]
30003668:	e59b3004 	ldr	r3, [fp, #4]
3000366c:	e3530001 	cmp	r3, #1
30003670:	da000002 	ble	30003680 <number+0x70>
30003674:	e59b3004 	ldr	r3, [fp, #4]
30003678:	e3530024 	cmp	r3, #36	; 0x24
3000367c:	da000001 	ble	30003688 <number+0x78>
30003680:	e3a03000 	mov	r3, #0
30003684:	ea000104 	b	30003a9c <number+0x48c>
30003688:	e59b3010 	ldr	r3, [fp, #16]
3000368c:	e2033001 	and	r3, r3, #1
30003690:	e3530000 	cmp	r3, #0
30003694:	0a000001 	beq	300036a0 <number+0x90>
30003698:	e3a03030 	mov	r3, #48	; 0x30
3000369c:	ea000000 	b	300036a4 <number+0x94>
300036a0:	e3a03020 	mov	r3, #32
300036a4:	e54b3019 	strb	r3, [fp, #-25]	; 0xffffffe7
300036a8:	e3a03000 	mov	r3, #0
300036ac:	e54b300d 	strb	r3, [fp, #-13]
300036b0:	e59b3010 	ldr	r3, [fp, #16]
300036b4:	e2033002 	and	r3, r3, #2
300036b8:	e3530000 	cmp	r3, #0
300036bc:	0a000023 	beq	30003750 <number+0x140>
300036c0:	e24b406c 	sub	r4, fp, #108	; 0x6c
300036c4:	e8940018 	ldm	r4, {r3, r4}
300036c8:	e3530000 	cmp	r3, #0
300036cc:	e2d43000 	sbcs	r3, r4, #0
300036d0:	aa00000b 	bge	30003704 <number+0xf4>
300036d4:	e3a0302d 	mov	r3, #45	; 0x2d
300036d8:	e54b300d 	strb	r3, [fp, #-13]
300036dc:	e24b406c 	sub	r4, fp, #108	; 0x6c
300036e0:	e8940018 	ldm	r4, {r3, r4}
300036e4:	e2733000 	rsbs	r3, r3, #0
300036e8:	e2e44000 	rsc	r4, r4, #0
300036ec:	e50b306c 	str	r3, [fp, #-108]	; 0xffffff94
300036f0:	e50b4068 	str	r4, [fp, #-104]	; 0xffffff98
300036f4:	e59b3008 	ldr	r3, [fp, #8]
300036f8:	e2433001 	sub	r3, r3, #1
300036fc:	e58b3008 	str	r3, [fp, #8]
30003700:	ea000012 	b	30003750 <number+0x140>
30003704:	e59b3010 	ldr	r3, [fp, #16]
30003708:	e2033004 	and	r3, r3, #4
3000370c:	e3530000 	cmp	r3, #0
30003710:	0a000005 	beq	3000372c <number+0x11c>
30003714:	e3a0302b 	mov	r3, #43	; 0x2b
30003718:	e54b300d 	strb	r3, [fp, #-13]
3000371c:	e59b3008 	ldr	r3, [fp, #8]
30003720:	e2433001 	sub	r3, r3, #1
30003724:	e58b3008 	str	r3, [fp, #8]
30003728:	ea000008 	b	30003750 <number+0x140>
3000372c:	e59b3010 	ldr	r3, [fp, #16]
30003730:	e2033008 	and	r3, r3, #8
30003734:	e3530000 	cmp	r3, #0
30003738:	0a000004 	beq	30003750 <number+0x140>
3000373c:	e3a03020 	mov	r3, #32
30003740:	e54b300d 	strb	r3, [fp, #-13]
30003744:	e59b3008 	ldr	r3, [fp, #8]
30003748:	e2433001 	sub	r3, r3, #1
3000374c:	e58b3008 	str	r3, [fp, #8]
30003750:	e59b3010 	ldr	r3, [fp, #16]
30003754:	e2033020 	and	r3, r3, #32
30003758:	e3530000 	cmp	r3, #0
3000375c:	0a00000c 	beq	30003794 <number+0x184>
30003760:	e59b3004 	ldr	r3, [fp, #4]
30003764:	e3530010 	cmp	r3, #16
30003768:	1a000003 	bne	3000377c <number+0x16c>
3000376c:	e59b3008 	ldr	r3, [fp, #8]
30003770:	e2433002 	sub	r3, r3, #2
30003774:	e58b3008 	str	r3, [fp, #8]
30003778:	ea000005 	b	30003794 <number+0x184>
3000377c:	e59b3004 	ldr	r3, [fp, #4]
30003780:	e3530008 	cmp	r3, #8
30003784:	1a000002 	bne	30003794 <number+0x184>
30003788:	e59b3008 	ldr	r3, [fp, #8]
3000378c:	e2433001 	sub	r3, r3, #1
30003790:	e58b3008 	str	r3, [fp, #8]
30003794:	e3a03000 	mov	r3, #0
30003798:	e50b3014 	str	r3, [fp, #-20]	; 0xffffffec
3000379c:	e24b406c 	sub	r4, fp, #108	; 0x6c
300037a0:	e8940018 	ldm	r4, {r3, r4}
300037a4:	e1933004 	orrs	r3, r3, r4
300037a8:	1a000007 	bne	300037cc <number+0x1bc>
300037ac:	e51b3014 	ldr	r3, [fp, #-20]	; 0xffffffec
300037b0:	e2832001 	add	r2, r3, #1
300037b4:	e50b2014 	str	r2, [fp, #-20]	; 0xffffffec
300037b8:	e24b200c 	sub	r2, fp, #12
300037bc:	e0823003 	add	r3, r2, r3
300037c0:	e3a02030 	mov	r2, #48	; 0x30
300037c4:	e5432050 	strb	r2, [r3, #-80]	; 0xffffffb0
300037c8:	ea000015 	b	30003824 <number+0x214>
300037cc:	ea000010 	b	30003814 <number+0x204>
300037d0:	e51b5014 	ldr	r5, [fp, #-20]	; 0xffffffec
300037d4:	e2853001 	add	r3, r5, #1
300037d8:	e50b3014 	str	r3, [fp, #-20]	; 0xffffffec
300037dc:	e59b3004 	ldr	r3, [fp, #4]
300037e0:	e1a04003 	mov	r4, r3
300037e4:	e24b106c 	sub	r1, fp, #108	; 0x6c
300037e8:	e8910003 	ldm	r1, {r0, r1}
300037ec:	ebfff467 	bl	30000990 <__do_div64>
300037f0:	e50b206c 	str	r2, [fp, #-108]	; 0xffffff94
300037f4:	e50b3068 	str	r3, [fp, #-104]	; 0xffffff98
300037f8:	e1a02001 	mov	r2, r1
300037fc:	e51b3018 	ldr	r3, [fp, #-24]	; 0xffffffe8
30003800:	e0833002 	add	r3, r3, r2
30003804:	e5d32000 	ldrb	r2, [r3]
30003808:	e24b300c 	sub	r3, fp, #12
3000380c:	e0833005 	add	r3, r3, r5
30003810:	e5432050 	strb	r2, [r3, #-80]	; 0xffffffb0
30003814:	e24b406c 	sub	r4, fp, #108	; 0x6c
30003818:	e8940018 	ldm	r4, {r3, r4}
3000381c:	e1933004 	orrs	r3, r3, r4
30003820:	1affffea 	bne	300037d0 <number+0x1c0>
30003824:	e51b2014 	ldr	r2, [fp, #-20]	; 0xffffffec
30003828:	e59b300c 	ldr	r3, [fp, #12]
3000382c:	e1520003 	cmp	r2, r3
30003830:	da000001 	ble	3000383c <number+0x22c>
30003834:	e51b3014 	ldr	r3, [fp, #-20]	; 0xffffffec
30003838:	e58b300c 	str	r3, [fp, #12]
3000383c:	e59b2008 	ldr	r2, [fp, #8]
30003840:	e59b300c 	ldr	r3, [fp, #12]
30003844:	e0633002 	rsb	r3, r3, r2
30003848:	e58b3008 	str	r3, [fp, #8]
3000384c:	e59b3010 	ldr	r3, [fp, #16]
30003850:	e2033011 	and	r3, r3, #17
30003854:	e3530000 	cmp	r3, #0
30003858:	1a00000f 	bne	3000389c <number+0x28c>
3000385c:	ea000009 	b	30003888 <number+0x278>
30003860:	e51b2060 	ldr	r2, [fp, #-96]	; 0xffffffa0
30003864:	e51b3064 	ldr	r3, [fp, #-100]	; 0xffffff9c
30003868:	e1520003 	cmp	r2, r3
3000386c:	8a000002 	bhi	3000387c <number+0x26c>
30003870:	e51b3060 	ldr	r3, [fp, #-96]	; 0xffffffa0
30003874:	e3a02020 	mov	r2, #32
30003878:	e5c32000 	strb	r2, [r3]
3000387c:	e51b3060 	ldr	r3, [fp, #-96]	; 0xffffffa0
30003880:	e2833001 	add	r3, r3, #1
30003884:	e50b3060 	str	r3, [fp, #-96]	; 0xffffffa0
30003888:	e59b3008 	ldr	r3, [fp, #8]
3000388c:	e2432001 	sub	r2, r3, #1
30003890:	e58b2008 	str	r2, [fp, #8]
30003894:	e3530000 	cmp	r3, #0
30003898:	cafffff0 	bgt	30003860 <number+0x250>
3000389c:	e55b300d 	ldrb	r3, [fp, #-13]
300038a0:	e3530000 	cmp	r3, #0
300038a4:	0a000009 	beq	300038d0 <number+0x2c0>
300038a8:	e51b2060 	ldr	r2, [fp, #-96]	; 0xffffffa0
300038ac:	e51b3064 	ldr	r3, [fp, #-100]	; 0xffffff9c
300038b0:	e1520003 	cmp	r2, r3
300038b4:	8a000002 	bhi	300038c4 <number+0x2b4>
300038b8:	e51b3060 	ldr	r3, [fp, #-96]	; 0xffffffa0
300038bc:	e55b200d 	ldrb	r2, [fp, #-13]
300038c0:	e5c32000 	strb	r2, [r3]
300038c4:	e51b3060 	ldr	r3, [fp, #-96]	; 0xffffffa0
300038c8:	e2833001 	add	r3, r3, #1
300038cc:	e50b3060 	str	r3, [fp, #-96]	; 0xffffffa0
300038d0:	e59b3010 	ldr	r3, [fp, #16]
300038d4:	e2033020 	and	r3, r3, #32
300038d8:	e3530000 	cmp	r3, #0
300038dc:	0a000025 	beq	30003978 <number+0x368>
300038e0:	e59b3004 	ldr	r3, [fp, #4]
300038e4:	e3530008 	cmp	r3, #8
300038e8:	1a00000a 	bne	30003918 <number+0x308>
300038ec:	e51b2060 	ldr	r2, [fp, #-96]	; 0xffffffa0
300038f0:	e51b3064 	ldr	r3, [fp, #-100]	; 0xffffff9c
300038f4:	e1520003 	cmp	r2, r3
300038f8:	8a000002 	bhi	30003908 <number+0x2f8>
300038fc:	e51b3060 	ldr	r3, [fp, #-96]	; 0xffffffa0
30003900:	e3a02030 	mov	r2, #48	; 0x30
30003904:	e5c32000 	strb	r2, [r3]
30003908:	e51b3060 	ldr	r3, [fp, #-96]	; 0xffffffa0
3000390c:	e2833001 	add	r3, r3, #1
30003910:	e50b3060 	str	r3, [fp, #-96]	; 0xffffffa0
30003914:	ea000017 	b	30003978 <number+0x368>
30003918:	e59b3004 	ldr	r3, [fp, #4]
3000391c:	e3530010 	cmp	r3, #16
30003920:	1a000014 	bne	30003978 <number+0x368>
30003924:	e51b2060 	ldr	r2, [fp, #-96]	; 0xffffffa0
30003928:	e51b3064 	ldr	r3, [fp, #-100]	; 0xffffff9c
3000392c:	e1520003 	cmp	r2, r3
30003930:	8a000002 	bhi	30003940 <number+0x330>
30003934:	e51b3060 	ldr	r3, [fp, #-96]	; 0xffffffa0
30003938:	e3a02030 	mov	r2, #48	; 0x30
3000393c:	e5c32000 	strb	r2, [r3]
30003940:	e51b3060 	ldr	r3, [fp, #-96]	; 0xffffffa0
30003944:	e2833001 	add	r3, r3, #1
30003948:	e50b3060 	str	r3, [fp, #-96]	; 0xffffffa0
3000394c:	e51b2060 	ldr	r2, [fp, #-96]	; 0xffffffa0
30003950:	e51b3064 	ldr	r3, [fp, #-100]	; 0xffffff9c
30003954:	e1520003 	cmp	r2, r3
30003958:	8a000003 	bhi	3000396c <number+0x35c>
3000395c:	e51b3018 	ldr	r3, [fp, #-24]	; 0xffffffe8
30003960:	e5d32021 	ldrb	r2, [r3, #33]	; 0x21
30003964:	e51b3060 	ldr	r3, [fp, #-96]	; 0xffffffa0
30003968:	e5c32000 	strb	r2, [r3]
3000396c:	e51b3060 	ldr	r3, [fp, #-96]	; 0xffffffa0
30003970:	e2833001 	add	r3, r3, #1
30003974:	e50b3060 	str	r3, [fp, #-96]	; 0xffffffa0
30003978:	e59b3010 	ldr	r3, [fp, #16]
3000397c:	e2033010 	and	r3, r3, #16
30003980:	e3530000 	cmp	r3, #0
30003984:	1a00000f 	bne	300039c8 <number+0x3b8>
30003988:	ea000009 	b	300039b4 <number+0x3a4>
3000398c:	e51b2060 	ldr	r2, [fp, #-96]	; 0xffffffa0
30003990:	e51b3064 	ldr	r3, [fp, #-100]	; 0xffffff9c
30003994:	e1520003 	cmp	r2, r3
30003998:	8a000002 	bhi	300039a8 <number+0x398>
3000399c:	e51b3060 	ldr	r3, [fp, #-96]	; 0xffffffa0
300039a0:	e55b2019 	ldrb	r2, [fp, #-25]	; 0xffffffe7
300039a4:	e5c32000 	strb	r2, [r3]
300039a8:	e51b3060 	ldr	r3, [fp, #-96]	; 0xffffffa0
300039ac:	e2833001 	add	r3, r3, #1
300039b0:	e50b3060 	str	r3, [fp, #-96]	; 0xffffffa0
300039b4:	e59b3008 	ldr	r3, [fp, #8]
300039b8:	e2432001 	sub	r2, r3, #1
300039bc:	e58b2008 	str	r2, [fp, #8]
300039c0:	e3530000 	cmp	r3, #0
300039c4:	cafffff0 	bgt	3000398c <number+0x37c>
300039c8:	ea000009 	b	300039f4 <number+0x3e4>
300039cc:	e51b2060 	ldr	r2, [fp, #-96]	; 0xffffffa0
300039d0:	e51b3064 	ldr	r3, [fp, #-100]	; 0xffffff9c
300039d4:	e1520003 	cmp	r2, r3
300039d8:	8a000002 	bhi	300039e8 <number+0x3d8>
300039dc:	e51b3060 	ldr	r3, [fp, #-96]	; 0xffffffa0
300039e0:	e3a02030 	mov	r2, #48	; 0x30
300039e4:	e5c32000 	strb	r2, [r3]
300039e8:	e51b3060 	ldr	r3, [fp, #-96]	; 0xffffffa0
300039ec:	e2833001 	add	r3, r3, #1
300039f0:	e50b3060 	str	r3, [fp, #-96]	; 0xffffffa0
300039f4:	e59b300c 	ldr	r3, [fp, #12]
300039f8:	e2432001 	sub	r2, r3, #1
300039fc:	e58b200c 	str	r2, [fp, #12]
30003a00:	e51b2014 	ldr	r2, [fp, #-20]	; 0xffffffec
30003a04:	e1530002 	cmp	r3, r2
30003a08:	caffffef 	bgt	300039cc <number+0x3bc>
30003a0c:	ea00000c 	b	30003a44 <number+0x434>
30003a10:	e51b2060 	ldr	r2, [fp, #-96]	; 0xffffffa0
30003a14:	e51b3064 	ldr	r3, [fp, #-100]	; 0xffffff9c
30003a18:	e1520003 	cmp	r2, r3
30003a1c:	8a000005 	bhi	30003a38 <number+0x428>
30003a20:	e24b205c 	sub	r2, fp, #92	; 0x5c
30003a24:	e51b3014 	ldr	r3, [fp, #-20]	; 0xffffffec
30003a28:	e0823003 	add	r3, r2, r3
30003a2c:	e5d32000 	ldrb	r2, [r3]
30003a30:	e51b3060 	ldr	r3, [fp, #-96]	; 0xffffffa0
30003a34:	e5c32000 	strb	r2, [r3]
30003a38:	e51b3060 	ldr	r3, [fp, #-96]	; 0xffffffa0
30003a3c:	e2833001 	add	r3, r3, #1
30003a40:	e50b3060 	str	r3, [fp, #-96]	; 0xffffffa0
30003a44:	e51b3014 	ldr	r3, [fp, #-20]	; 0xffffffec
30003a48:	e2432001 	sub	r2, r3, #1
30003a4c:	e50b2014 	str	r2, [fp, #-20]	; 0xffffffec
30003a50:	e3530000 	cmp	r3, #0
30003a54:	caffffed 	bgt	30003a10 <number+0x400>
30003a58:	ea000009 	b	30003a84 <number+0x474>
30003a5c:	e51b2060 	ldr	r2, [fp, #-96]	; 0xffffffa0
30003a60:	e51b3064 	ldr	r3, [fp, #-100]	; 0xffffff9c
30003a64:	e1520003 	cmp	r2, r3
30003a68:	8a000002 	bhi	30003a78 <number+0x468>
30003a6c:	e51b3060 	ldr	r3, [fp, #-96]	; 0xffffffa0
30003a70:	e3a02020 	mov	r2, #32
30003a74:	e5c32000 	strb	r2, [r3]
30003a78:	e51b3060 	ldr	r3, [fp, #-96]	; 0xffffffa0
30003a7c:	e2833001 	add	r3, r3, #1
30003a80:	e50b3060 	str	r3, [fp, #-96]	; 0xffffffa0
30003a84:	e59b3008 	ldr	r3, [fp, #8]
30003a88:	e2432001 	sub	r2, r3, #1
30003a8c:	e58b2008 	str	r2, [fp, #8]
30003a90:	e3530000 	cmp	r3, #0
30003a94:	cafffff0 	bgt	30003a5c <number+0x44c>
30003a98:	e51b3060 	ldr	r3, [fp, #-96]	; 0xffffffa0
30003a9c:	e1a00003 	mov	r0, r3
30003aa0:	e24bd00c 	sub	sp, fp, #12
30003aa4:	e8bd4830 	pop	{r4, r5, fp, lr}
30003aa8:	e12fff1e 	bx	lr
30003aac:	30005680 	andcc	r5, r0, r0, lsl #13
30003ab0:	300056a8 	andcc	r5, r0, r8, lsr #13

30003ab4 <vsnprintf>:
30003ab4:	e92d4810 	push	{r4, fp, lr}
30003ab8:	e28db008 	add	fp, sp, #8
30003abc:	e24dd064 	sub	sp, sp, #100	; 0x64
30003ac0:	e50b0050 	str	r0, [fp, #-80]	; 0xffffffb0
30003ac4:	e50b1054 	str	r1, [fp, #-84]	; 0xffffffac
30003ac8:	e50b2058 	str	r2, [fp, #-88]	; 0xffffffa8
30003acc:	e50b305c 	str	r3, [fp, #-92]	; 0xffffffa4
30003ad0:	e51b3054 	ldr	r3, [fp, #-84]	; 0xffffffac
30003ad4:	e1a03fa3 	lsr	r3, r3, #31
30003ad8:	e20330ff 	and	r3, r3, #255	; 0xff
30003adc:	e3530000 	cmp	r3, #0
30003ae0:	0a000004 	beq	30003af8 <vsnprintf+0x44>
30003ae4:	e59f3ae4 	ldr	r3, [pc, #2788]	; 300045d0 <vsnprintf+0xb1c>
30003ae8:	e3a02000 	mov	r2, #0
30003aec:	e5832000 	str	r2, [r3]
30003af0:	e3a03000 	mov	r3, #0
30003af4:	ea0002b1 	b	300045c0 <vsnprintf+0xb0c>
30003af8:	e51b3050 	ldr	r3, [fp, #-80]	; 0xffffffb0
30003afc:	e50b3020 	str	r3, [fp, #-32]	; 0xffffffe0
30003b00:	e51b3054 	ldr	r3, [fp, #-84]	; 0xffffffac
30003b04:	e2433001 	sub	r3, r3, #1
30003b08:	e51b2050 	ldr	r2, [fp, #-80]	; 0xffffffb0
30003b0c:	e0823003 	add	r3, r2, r3
30003b10:	e50b3024 	str	r3, [fp, #-36]	; 0xffffffdc
30003b14:	e51b3050 	ldr	r3, [fp, #-80]	; 0xffffffb0
30003b18:	e2432001 	sub	r2, r3, #1
30003b1c:	e51b3024 	ldr	r3, [fp, #-36]	; 0xffffffdc
30003b20:	e1520003 	cmp	r2, r3
30003b24:	9a000006 	bls	30003b44 <vsnprintf+0x90>
30003b28:	e3e03000 	mvn	r3, #0
30003b2c:	e50b3024 	str	r3, [fp, #-36]	; 0xffffffdc
30003b30:	e51b2024 	ldr	r2, [fp, #-36]	; 0xffffffdc
30003b34:	e51b3050 	ldr	r3, [fp, #-80]	; 0xffffffb0
30003b38:	e0633002 	rsb	r3, r3, r2
30003b3c:	e2833001 	add	r3, r3, #1
30003b40:	e50b3054 	str	r3, [fp, #-84]	; 0xffffffac
30003b44:	ea000288 	b	3000456c <vsnprintf+0xab8>
30003b48:	e51b3058 	ldr	r3, [fp, #-88]	; 0xffffffa8
30003b4c:	e5d33000 	ldrb	r3, [r3]
30003b50:	e3530025 	cmp	r3, #37	; 0x25
30003b54:	0a00000b 	beq	30003b88 <vsnprintf+0xd4>
30003b58:	e51b2020 	ldr	r2, [fp, #-32]	; 0xffffffe0
30003b5c:	e51b3024 	ldr	r3, [fp, #-36]	; 0xffffffdc
30003b60:	e1520003 	cmp	r2, r3
30003b64:	8a000003 	bhi	30003b78 <vsnprintf+0xc4>
30003b68:	e51b3058 	ldr	r3, [fp, #-88]	; 0xffffffa8
30003b6c:	e5d32000 	ldrb	r2, [r3]
30003b70:	e51b3020 	ldr	r3, [fp, #-32]	; 0xffffffe0
30003b74:	e5c32000 	strb	r2, [r3]
30003b78:	e51b3020 	ldr	r3, [fp, #-32]	; 0xffffffe0
30003b7c:	e2833001 	add	r3, r3, #1
30003b80:	e50b3020 	str	r3, [fp, #-32]	; 0xffffffe0
30003b84:	ea000275 	b	30004560 <vsnprintf+0xaac>
30003b88:	e3a03000 	mov	r3, #0
30003b8c:	e50b302c 	str	r3, [fp, #-44]	; 0xffffffd4
30003b90:	e51b3058 	ldr	r3, [fp, #-88]	; 0xffffffa8
30003b94:	e2833001 	add	r3, r3, #1
30003b98:	e50b3058 	str	r3, [fp, #-88]	; 0xffffffa8
30003b9c:	e51b3058 	ldr	r3, [fp, #-88]	; 0xffffffa8
30003ba0:	e5d33000 	ldrb	r3, [r3]
30003ba4:	e2433020 	sub	r3, r3, #32
30003ba8:	e3530010 	cmp	r3, #16
30003bac:	979ff103 	ldrls	pc, [pc, r3, lsl #2]
30003bb0:	ea000024 	b	30003c48 <vsnprintf+0x194>
30003bb4:	30003c18 	andcc	r3, r0, r8, lsl ip
30003bb8:	30003c48 	andcc	r3, r0, r8, asr #24
30003bbc:	30003c48 	andcc	r3, r0, r8, asr #24
30003bc0:	30003c28 	andcc	r3, r0, r8, lsr #24
30003bc4:	30003c48 	andcc	r3, r0, r8, asr #24
30003bc8:	30003c48 	andcc	r3, r0, r8, asr #24
30003bcc:	30003c48 	andcc	r3, r0, r8, asr #24
30003bd0:	30003c48 	andcc	r3, r0, r8, asr #24
30003bd4:	30003c48 	andcc	r3, r0, r8, asr #24
30003bd8:	30003c48 	andcc	r3, r0, r8, asr #24
30003bdc:	30003c48 	andcc	r3, r0, r8, asr #24
30003be0:	30003c08 	andcc	r3, r0, r8, lsl #24
30003be4:	30003c48 	andcc	r3, r0, r8, asr #24
30003be8:	30003bf8 	strdcc	r3, [r0], -r8
30003bec:	30003c48 	andcc	r3, r0, r8, asr #24
30003bf0:	30003c48 	andcc	r3, r0, r8, asr #24
30003bf4:	30003c38 	andcc	r3, r0, r8, lsr ip
30003bf8:	e51b302c 	ldr	r3, [fp, #-44]	; 0xffffffd4
30003bfc:	e3833010 	orr	r3, r3, #16
30003c00:	e50b302c 	str	r3, [fp, #-44]	; 0xffffffd4
30003c04:	eaffffe1 	b	30003b90 <vsnprintf+0xdc>
30003c08:	e51b302c 	ldr	r3, [fp, #-44]	; 0xffffffd4
30003c0c:	e3833004 	orr	r3, r3, #4
30003c10:	e50b302c 	str	r3, [fp, #-44]	; 0xffffffd4
30003c14:	eaffffdd 	b	30003b90 <vsnprintf+0xdc>
30003c18:	e51b302c 	ldr	r3, [fp, #-44]	; 0xffffffd4
30003c1c:	e3833008 	orr	r3, r3, #8
30003c20:	e50b302c 	str	r3, [fp, #-44]	; 0xffffffd4
30003c24:	eaffffd9 	b	30003b90 <vsnprintf+0xdc>
30003c28:	e51b302c 	ldr	r3, [fp, #-44]	; 0xffffffd4
30003c2c:	e3833020 	orr	r3, r3, #32
30003c30:	e50b302c 	str	r3, [fp, #-44]	; 0xffffffd4
30003c34:	eaffffd5 	b	30003b90 <vsnprintf+0xdc>
30003c38:	e51b302c 	ldr	r3, [fp, #-44]	; 0xffffffd4
30003c3c:	e3833001 	orr	r3, r3, #1
30003c40:	e50b302c 	str	r3, [fp, #-44]	; 0xffffffd4
30003c44:	eaffffd1 	b	30003b90 <vsnprintf+0xdc>
30003c48:	e3e03000 	mvn	r3, #0
30003c4c:	e50b3030 	str	r3, [fp, #-48]	; 0xffffffd0
30003c50:	e51b3058 	ldr	r3, [fp, #-88]	; 0xffffffa8
30003c54:	e5d33000 	ldrb	r3, [r3]
30003c58:	e1a02003 	mov	r2, r3
30003c5c:	e59f3970 	ldr	r3, [pc, #2416]	; 300045d4 <vsnprintf+0xb20>
30003c60:	e7d33002 	ldrb	r3, [r3, r2]
30003c64:	e2033004 	and	r3, r3, #4
30003c68:	e3530000 	cmp	r3, #0
30003c6c:	0a000004 	beq	30003c84 <vsnprintf+0x1d0>
30003c70:	e24b3058 	sub	r3, fp, #88	; 0x58
30003c74:	e1a00003 	mov	r0, r3
30003c78:	ebfffe3f 	bl	3000357c <skip_atoi>
30003c7c:	e50b0030 	str	r0, [fp, #-48]	; 0xffffffd0
30003c80:	ea000015 	b	30003cdc <vsnprintf+0x228>
30003c84:	e51b3058 	ldr	r3, [fp, #-88]	; 0xffffffa8
30003c88:	e5d33000 	ldrb	r3, [r3]
30003c8c:	e353002a 	cmp	r3, #42	; 0x2a
30003c90:	1a000011 	bne	30003cdc <vsnprintf+0x228>
30003c94:	e51b3058 	ldr	r3, [fp, #-88]	; 0xffffffa8
30003c98:	e2833001 	add	r3, r3, #1
30003c9c:	e50b3058 	str	r3, [fp, #-88]	; 0xffffffa8
30003ca0:	e51b305c 	ldr	r3, [fp, #-92]	; 0xffffffa4
30003ca4:	e2833004 	add	r3, r3, #4
30003ca8:	e50b305c 	str	r3, [fp, #-92]	; 0xffffffa4
30003cac:	e51b305c 	ldr	r3, [fp, #-92]	; 0xffffffa4
30003cb0:	e5133004 	ldr	r3, [r3, #-4]
30003cb4:	e50b3030 	str	r3, [fp, #-48]	; 0xffffffd0
30003cb8:	e51b3030 	ldr	r3, [fp, #-48]	; 0xffffffd0
30003cbc:	e3530000 	cmp	r3, #0
30003cc0:	aa000005 	bge	30003cdc <vsnprintf+0x228>
30003cc4:	e51b3030 	ldr	r3, [fp, #-48]	; 0xffffffd0
30003cc8:	e2633000 	rsb	r3, r3, #0
30003ccc:	e50b3030 	str	r3, [fp, #-48]	; 0xffffffd0
30003cd0:	e51b302c 	ldr	r3, [fp, #-44]	; 0xffffffd4
30003cd4:	e3833010 	orr	r3, r3, #16
30003cd8:	e50b302c 	str	r3, [fp, #-44]	; 0xffffffd4
30003cdc:	e3e03000 	mvn	r3, #0
30003ce0:	e50b3034 	str	r3, [fp, #-52]	; 0xffffffcc
30003ce4:	e51b3058 	ldr	r3, [fp, #-88]	; 0xffffffa8
30003ce8:	e5d33000 	ldrb	r3, [r3]
30003cec:	e353002e 	cmp	r3, #46	; 0x2e
30003cf0:	1a000021 	bne	30003d7c <vsnprintf+0x2c8>
30003cf4:	e51b3058 	ldr	r3, [fp, #-88]	; 0xffffffa8
30003cf8:	e2833001 	add	r3, r3, #1
30003cfc:	e50b3058 	str	r3, [fp, #-88]	; 0xffffffa8
30003d00:	e51b3058 	ldr	r3, [fp, #-88]	; 0xffffffa8
30003d04:	e5d33000 	ldrb	r3, [r3]
30003d08:	e1a02003 	mov	r2, r3
30003d0c:	e59f38c0 	ldr	r3, [pc, #2240]	; 300045d4 <vsnprintf+0xb20>
30003d10:	e7d33002 	ldrb	r3, [r3, r2]
30003d14:	e2033004 	and	r3, r3, #4
30003d18:	e3530000 	cmp	r3, #0
30003d1c:	0a000004 	beq	30003d34 <vsnprintf+0x280>
30003d20:	e24b3058 	sub	r3, fp, #88	; 0x58
30003d24:	e1a00003 	mov	r0, r3
30003d28:	ebfffe13 	bl	3000357c <skip_atoi>
30003d2c:	e50b0034 	str	r0, [fp, #-52]	; 0xffffffcc
30003d30:	ea00000c 	b	30003d68 <vsnprintf+0x2b4>
30003d34:	e51b3058 	ldr	r3, [fp, #-88]	; 0xffffffa8
30003d38:	e5d33000 	ldrb	r3, [r3]
30003d3c:	e353002a 	cmp	r3, #42	; 0x2a
30003d40:	1a000008 	bne	30003d68 <vsnprintf+0x2b4>
30003d44:	e51b3058 	ldr	r3, [fp, #-88]	; 0xffffffa8
30003d48:	e2833001 	add	r3, r3, #1
30003d4c:	e50b3058 	str	r3, [fp, #-88]	; 0xffffffa8
30003d50:	e51b305c 	ldr	r3, [fp, #-92]	; 0xffffffa4
30003d54:	e2833004 	add	r3, r3, #4
30003d58:	e50b305c 	str	r3, [fp, #-92]	; 0xffffffa4
30003d5c:	e51b305c 	ldr	r3, [fp, #-92]	; 0xffffffa4
30003d60:	e5133004 	ldr	r3, [r3, #-4]
30003d64:	e50b3034 	str	r3, [fp, #-52]	; 0xffffffcc
30003d68:	e51b3034 	ldr	r3, [fp, #-52]	; 0xffffffcc
30003d6c:	e3530000 	cmp	r3, #0
30003d70:	aa000001 	bge	30003d7c <vsnprintf+0x2c8>
30003d74:	e3a03000 	mov	r3, #0
30003d78:	e50b3034 	str	r3, [fp, #-52]	; 0xffffffcc
30003d7c:	e3e03000 	mvn	r3, #0
30003d80:	e50b3038 	str	r3, [fp, #-56]	; 0xffffffc8
30003d84:	e51b3058 	ldr	r3, [fp, #-88]	; 0xffffffa8
30003d88:	e5d33000 	ldrb	r3, [r3]
30003d8c:	e3530068 	cmp	r3, #104	; 0x68
30003d90:	0a00000f 	beq	30003dd4 <vsnprintf+0x320>
30003d94:	e51b3058 	ldr	r3, [fp, #-88]	; 0xffffffa8
30003d98:	e5d33000 	ldrb	r3, [r3]
30003d9c:	e353006c 	cmp	r3, #108	; 0x6c
30003da0:	0a00000b 	beq	30003dd4 <vsnprintf+0x320>
30003da4:	e51b3058 	ldr	r3, [fp, #-88]	; 0xffffffa8
30003da8:	e5d33000 	ldrb	r3, [r3]
30003dac:	e353004c 	cmp	r3, #76	; 0x4c
30003db0:	0a000007 	beq	30003dd4 <vsnprintf+0x320>
30003db4:	e51b3058 	ldr	r3, [fp, #-88]	; 0xffffffa8
30003db8:	e5d33000 	ldrb	r3, [r3]
30003dbc:	e353005a 	cmp	r3, #90	; 0x5a
30003dc0:	0a000003 	beq	30003dd4 <vsnprintf+0x320>
30003dc4:	e51b3058 	ldr	r3, [fp, #-88]	; 0xffffffa8
30003dc8:	e5d33000 	ldrb	r3, [r3]
30003dcc:	e353007a 	cmp	r3, #122	; 0x7a
30003dd0:	1a000011 	bne	30003e1c <vsnprintf+0x368>
30003dd4:	e51b3058 	ldr	r3, [fp, #-88]	; 0xffffffa8
30003dd8:	e5d33000 	ldrb	r3, [r3]
30003ddc:	e50b3038 	str	r3, [fp, #-56]	; 0xffffffc8
30003de0:	e51b3058 	ldr	r3, [fp, #-88]	; 0xffffffa8
30003de4:	e2833001 	add	r3, r3, #1
30003de8:	e50b3058 	str	r3, [fp, #-88]	; 0xffffffa8
30003dec:	e51b3038 	ldr	r3, [fp, #-56]	; 0xffffffc8
30003df0:	e353006c 	cmp	r3, #108	; 0x6c
30003df4:	1a000008 	bne	30003e1c <vsnprintf+0x368>
30003df8:	e51b3058 	ldr	r3, [fp, #-88]	; 0xffffffa8
30003dfc:	e5d33000 	ldrb	r3, [r3]
30003e00:	e353006c 	cmp	r3, #108	; 0x6c
30003e04:	1a000004 	bne	30003e1c <vsnprintf+0x368>
30003e08:	e3a0304c 	mov	r3, #76	; 0x4c
30003e0c:	e50b3038 	str	r3, [fp, #-56]	; 0xffffffc8
30003e10:	e51b3058 	ldr	r3, [fp, #-88]	; 0xffffffa8
30003e14:	e2833001 	add	r3, r3, #1
30003e18:	e50b3058 	str	r3, [fp, #-88]	; 0xffffffa8
30003e1c:	e3a0300a 	mov	r3, #10
30003e20:	e50b301c 	str	r3, [fp, #-28]	; 0xffffffe4
30003e24:	e51b3058 	ldr	r3, [fp, #-88]	; 0xffffffa8
30003e28:	e5d33000 	ldrb	r3, [r3]
30003e2c:	e2433025 	sub	r3, r3, #37	; 0x25
30003e30:	e3530053 	cmp	r3, #83	; 0x53
30003e34:	979ff103 	ldrls	pc, [pc, r3, lsl #2]
30003e38:	ea000140 	b	30004340 <vsnprintf+0x88c>
30003e3c:	300042e0 	andcc	r4, r0, r0, ror #5
30003e40:	30004340 	andcc	r4, r0, r0, asr #6
30003e44:	30004340 	andcc	r4, r0, r0, asr #6
30003e48:	30004340 	andcc	r4, r0, r0, asr #6
30003e4c:	30004340 	andcc	r4, r0, r0, asr #6
30003e50:	30004340 	andcc	r4, r0, r0, asr #6
30003e54:	30004340 	andcc	r4, r0, r0, asr #6
30003e58:	30004340 	andcc	r4, r0, r0, asr #6
30003e5c:	30004340 	andcc	r4, r0, r0, asr #6
30003e60:	30004340 	andcc	r4, r0, r0, asr #6
30003e64:	30004340 	andcc	r4, r0, r0, asr #6
30003e68:	30004340 	andcc	r4, r0, r0, asr #6
30003e6c:	30004340 	andcc	r4, r0, r0, asr #6
30003e70:	30004340 	andcc	r4, r0, r0, asr #6
30003e74:	30004340 	andcc	r4, r0, r0, asr #6
30003e78:	30004340 	andcc	r4, r0, r0, asr #6
30003e7c:	30004340 	andcc	r4, r0, r0, asr #6
30003e80:	30004340 	andcc	r4, r0, r0, asr #6
30003e84:	30004340 	andcc	r4, r0, r0, asr #6
30003e88:	30004340 	andcc	r4, r0, r0, asr #6
30003e8c:	30004340 	andcc	r4, r0, r0, asr #6
30003e90:	30004340 	andcc	r4, r0, r0, asr #6
30003e94:	30004340 	andcc	r4, r0, r0, asr #6
30003e98:	30004340 	andcc	r4, r0, r0, asr #6
30003e9c:	30004340 	andcc	r4, r0, r0, asr #6
30003ea0:	30004340 	andcc	r4, r0, r0, asr #6
30003ea4:	30004340 	andcc	r4, r0, r0, asr #6
30003ea8:	30004340 	andcc	r4, r0, r0, asr #6
30003eac:	30004340 	andcc	r4, r0, r0, asr #6
30003eb0:	30004340 	andcc	r4, r0, r0, asr #6
30003eb4:	30004340 	andcc	r4, r0, r0, asr #6
30003eb8:	30004340 	andcc	r4, r0, r0, asr #6
30003ebc:	30004340 	andcc	r4, r0, r0, asr #6
30003ec0:	30004340 	andcc	r4, r0, r0, asr #6
30003ec4:	30004340 	andcc	r4, r0, r0, asr #6
30003ec8:	30004340 	andcc	r4, r0, r0, asr #6
30003ecc:	30004340 	andcc	r4, r0, r0, asr #6
30003ed0:	30004340 	andcc	r4, r0, r0, asr #6
30003ed4:	30004340 	andcc	r4, r0, r0, asr #6
30003ed8:	30004340 	andcc	r4, r0, r0, asr #6
30003edc:	30004340 	andcc	r4, r0, r0, asr #6
30003ee0:	30004340 	andcc	r4, r0, r0, asr #6
30003ee4:	30004340 	andcc	r4, r0, r0, asr #6
30003ee8:	30004340 	andcc	r4, r0, r0, asr #6
30003eec:	30004340 	andcc	r4, r0, r0, asr #6
30003ef0:	30004340 	andcc	r4, r0, r0, asr #6
30003ef4:	30004340 	andcc	r4, r0, r0, asr #6
30003ef8:	30004340 	andcc	r4, r0, r0, asr #6
30003efc:	30004340 	andcc	r4, r0, r0, asr #6
30003f00:	30004340 	andcc	r4, r0, r0, asr #6
30003f04:	30004340 	andcc	r4, r0, r0, asr #6
30003f08:	30004318 	andcc	r4, r0, r8, lsl r3
30003f0c:	30004340 	andcc	r4, r0, r0, asr #6
30003f10:	30004340 	andcc	r4, r0, r0, asr #6
30003f14:	30004340 	andcc	r4, r0, r0, asr #6
30003f18:	30004340 	andcc	r4, r0, r0, asr #6
30003f1c:	30004340 	andcc	r4, r0, r0, asr #6
30003f20:	30004340 	andcc	r4, r0, r0, asr #6
30003f24:	30004340 	andcc	r4, r0, r0, asr #6
30003f28:	30004340 	andcc	r4, r0, r0, asr #6
30003f2c:	30004340 	andcc	r4, r0, r0, asr #6
30003f30:	30004340 	andcc	r4, r0, r0, asr #6
30003f34:	30003f8c 	andcc	r3, r0, ip, lsl #31
30003f38:	30004330 	andcc	r4, r0, r0, lsr r3
30003f3c:	30004340 	andcc	r4, r0, r0, asr #6
30003f40:	30004340 	andcc	r4, r0, r0, asr #6
30003f44:	30004340 	andcc	r4, r0, r0, asr #6
30003f48:	30004340 	andcc	r4, r0, r0, asr #6
30003f4c:	30004330 	andcc	r4, r0, r0, lsr r3
30003f50:	30004340 	andcc	r4, r0, r0, asr #6
30003f54:	30004340 	andcc	r4, r0, r0, asr #6
30003f58:	30004340 	andcc	r4, r0, r0, asr #6
30003f5c:	30004340 	andcc	r4, r0, r0, asr #6
30003f60:	30004224 	andcc	r4, r0, r4, lsr #4
30003f64:	3000430c 	andcc	r4, r0, ip, lsl #6
30003f68:	300041ac 	andcc	r4, r0, ip, lsr #3
30003f6c:	30004340 	andcc	r4, r0, r0, asr #6
30003f70:	30004340 	andcc	r4, r0, r0, asr #6
30003f74:	3000406c 	andcc	r4, r0, ip, rrx
30003f78:	30004340 	andcc	r4, r0, r0, asr #6
30003f7c:	300043b8 			; <UNDEFINED> instruction: 0x300043b8
30003f80:	30004340 	andcc	r4, r0, r0, asr #6
30003f84:	30004340 	andcc	r4, r0, r0, asr #6
30003f88:	30004324 	andcc	r4, r0, r4, lsr #6
30003f8c:	e51b302c 	ldr	r3, [fp, #-44]	; 0xffffffd4
30003f90:	e2033010 	and	r3, r3, #16
30003f94:	e3530000 	cmp	r3, #0
30003f98:	1a000010 	bne	30003fe0 <vsnprintf+0x52c>
30003f9c:	ea000009 	b	30003fc8 <vsnprintf+0x514>
30003fa0:	e51b2020 	ldr	r2, [fp, #-32]	; 0xffffffe0
30003fa4:	e51b3024 	ldr	r3, [fp, #-36]	; 0xffffffdc
30003fa8:	e1520003 	cmp	r2, r3
30003fac:	8a000002 	bhi	30003fbc <vsnprintf+0x508>
30003fb0:	e51b3020 	ldr	r3, [fp, #-32]	; 0xffffffe0
30003fb4:	e3a02020 	mov	r2, #32
30003fb8:	e5c32000 	strb	r2, [r3]
30003fbc:	e51b3020 	ldr	r3, [fp, #-32]	; 0xffffffe0
30003fc0:	e2833001 	add	r3, r3, #1
30003fc4:	e50b3020 	str	r3, [fp, #-32]	; 0xffffffe0
30003fc8:	e51b3030 	ldr	r3, [fp, #-48]	; 0xffffffd0
30003fcc:	e2433001 	sub	r3, r3, #1
30003fd0:	e50b3030 	str	r3, [fp, #-48]	; 0xffffffd0
30003fd4:	e51b3030 	ldr	r3, [fp, #-48]	; 0xffffffd0
30003fd8:	e3530000 	cmp	r3, #0
30003fdc:	caffffef 	bgt	30003fa0 <vsnprintf+0x4ec>
30003fe0:	e51b305c 	ldr	r3, [fp, #-92]	; 0xffffffa4
30003fe4:	e2833004 	add	r3, r3, #4
30003fe8:	e50b305c 	str	r3, [fp, #-92]	; 0xffffffa4
30003fec:	e51b305c 	ldr	r3, [fp, #-92]	; 0xffffffa4
30003ff0:	e2433004 	sub	r3, r3, #4
30003ff4:	e5933000 	ldr	r3, [r3]
30003ff8:	e54b3039 	strb	r3, [fp, #-57]	; 0xffffffc7
30003ffc:	e51b2020 	ldr	r2, [fp, #-32]	; 0xffffffe0
30004000:	e51b3024 	ldr	r3, [fp, #-36]	; 0xffffffdc
30004004:	e1520003 	cmp	r2, r3
30004008:	8a000002 	bhi	30004018 <vsnprintf+0x564>
3000400c:	e51b3020 	ldr	r3, [fp, #-32]	; 0xffffffe0
30004010:	e55b2039 	ldrb	r2, [fp, #-57]	; 0xffffffc7
30004014:	e5c32000 	strb	r2, [r3]
30004018:	e51b3020 	ldr	r3, [fp, #-32]	; 0xffffffe0
3000401c:	e2833001 	add	r3, r3, #1
30004020:	e50b3020 	str	r3, [fp, #-32]	; 0xffffffe0
30004024:	ea000009 	b	30004050 <vsnprintf+0x59c>
30004028:	e51b2020 	ldr	r2, [fp, #-32]	; 0xffffffe0
3000402c:	e51b3024 	ldr	r3, [fp, #-36]	; 0xffffffdc
30004030:	e1520003 	cmp	r2, r3
30004034:	8a000002 	bhi	30004044 <vsnprintf+0x590>
30004038:	e51b3020 	ldr	r3, [fp, #-32]	; 0xffffffe0
3000403c:	e3a02020 	mov	r2, #32
30004040:	e5c32000 	strb	r2, [r3]
30004044:	e51b3020 	ldr	r3, [fp, #-32]	; 0xffffffe0
30004048:	e2833001 	add	r3, r3, #1
3000404c:	e50b3020 	str	r3, [fp, #-32]	; 0xffffffe0
30004050:	e51b3030 	ldr	r3, [fp, #-48]	; 0xffffffd0
30004054:	e2433001 	sub	r3, r3, #1
30004058:	e50b3030 	str	r3, [fp, #-48]	; 0xffffffd0
3000405c:	e51b3030 	ldr	r3, [fp, #-48]	; 0xffffffd0
30004060:	e3530000 	cmp	r3, #0
30004064:	caffffef 	bgt	30004028 <vsnprintf+0x574>
30004068:	ea00013c 	b	30004560 <vsnprintf+0xaac>
3000406c:	e51b305c 	ldr	r3, [fp, #-92]	; 0xffffffa4
30004070:	e2833004 	add	r3, r3, #4
30004074:	e50b305c 	str	r3, [fp, #-92]	; 0xffffffa4
30004078:	e51b305c 	ldr	r3, [fp, #-92]	; 0xffffffa4
3000407c:	e5133004 	ldr	r3, [r3, #-4]
30004080:	e50b3028 	str	r3, [fp, #-40]	; 0xffffffd8
30004084:	e51b3028 	ldr	r3, [fp, #-40]	; 0xffffffd8
30004088:	e3530b01 	cmp	r3, #1024	; 0x400
3000408c:	2a000001 	bcs	30004098 <vsnprintf+0x5e4>
30004090:	e59f3540 	ldr	r3, [pc, #1344]	; 300045d8 <vsnprintf+0xb24>
30004094:	e50b3028 	str	r3, [fp, #-40]	; 0xffffffd8
30004098:	e51b3034 	ldr	r3, [fp, #-52]	; 0xffffffcc
3000409c:	e51b0028 	ldr	r0, [fp, #-40]	; 0xffffffd8
300040a0:	e1a01003 	mov	r1, r3
300040a4:	ebfff91b 	bl	30002518 <strnlen>
300040a8:	e1a03000 	mov	r3, r0
300040ac:	e50b3040 	str	r3, [fp, #-64]	; 0xffffffc0
300040b0:	e51b302c 	ldr	r3, [fp, #-44]	; 0xffffffd4
300040b4:	e2033010 	and	r3, r3, #16
300040b8:	e3530000 	cmp	r3, #0
300040bc:	1a000010 	bne	30004104 <vsnprintf+0x650>
300040c0:	ea000009 	b	300040ec <vsnprintf+0x638>
300040c4:	e51b2020 	ldr	r2, [fp, #-32]	; 0xffffffe0
300040c8:	e51b3024 	ldr	r3, [fp, #-36]	; 0xffffffdc
300040cc:	e1520003 	cmp	r2, r3
300040d0:	8a000002 	bhi	300040e0 <vsnprintf+0x62c>
300040d4:	e51b3020 	ldr	r3, [fp, #-32]	; 0xffffffe0
300040d8:	e3a02020 	mov	r2, #32
300040dc:	e5c32000 	strb	r2, [r3]
300040e0:	e51b3020 	ldr	r3, [fp, #-32]	; 0xffffffe0
300040e4:	e2833001 	add	r3, r3, #1
300040e8:	e50b3020 	str	r3, [fp, #-32]	; 0xffffffe0
300040ec:	e51b3030 	ldr	r3, [fp, #-48]	; 0xffffffd0
300040f0:	e2432001 	sub	r2, r3, #1
300040f4:	e50b2030 	str	r2, [fp, #-48]	; 0xffffffd0
300040f8:	e51b2040 	ldr	r2, [fp, #-64]	; 0xffffffc0
300040fc:	e1530002 	cmp	r3, r2
30004100:	caffffef 	bgt	300040c4 <vsnprintf+0x610>
30004104:	e3a03000 	mov	r3, #0
30004108:	e50b3018 	str	r3, [fp, #-24]	; 0xffffffe8
3000410c:	ea000010 	b	30004154 <vsnprintf+0x6a0>
30004110:	e51b2020 	ldr	r2, [fp, #-32]	; 0xffffffe0
30004114:	e51b3024 	ldr	r3, [fp, #-36]	; 0xffffffdc
30004118:	e1520003 	cmp	r2, r3
3000411c:	8a000003 	bhi	30004130 <vsnprintf+0x67c>
30004120:	e51b3028 	ldr	r3, [fp, #-40]	; 0xffffffd8
30004124:	e5d32000 	ldrb	r2, [r3]
30004128:	e51b3020 	ldr	r3, [fp, #-32]	; 0xffffffe0
3000412c:	e5c32000 	strb	r2, [r3]
30004130:	e51b3020 	ldr	r3, [fp, #-32]	; 0xffffffe0
30004134:	e2833001 	add	r3, r3, #1
30004138:	e50b3020 	str	r3, [fp, #-32]	; 0xffffffe0
3000413c:	e51b3028 	ldr	r3, [fp, #-40]	; 0xffffffd8
30004140:	e2833001 	add	r3, r3, #1
30004144:	e50b3028 	str	r3, [fp, #-40]	; 0xffffffd8
30004148:	e51b3018 	ldr	r3, [fp, #-24]	; 0xffffffe8
3000414c:	e2833001 	add	r3, r3, #1
30004150:	e50b3018 	str	r3, [fp, #-24]	; 0xffffffe8
30004154:	e51b2018 	ldr	r2, [fp, #-24]	; 0xffffffe8
30004158:	e51b3040 	ldr	r3, [fp, #-64]	; 0xffffffc0
3000415c:	e1520003 	cmp	r2, r3
30004160:	baffffea 	blt	30004110 <vsnprintf+0x65c>
30004164:	ea000009 	b	30004190 <vsnprintf+0x6dc>
30004168:	e51b2020 	ldr	r2, [fp, #-32]	; 0xffffffe0
3000416c:	e51b3024 	ldr	r3, [fp, #-36]	; 0xffffffdc
30004170:	e1520003 	cmp	r2, r3
30004174:	8a000002 	bhi	30004184 <vsnprintf+0x6d0>
30004178:	e51b3020 	ldr	r3, [fp, #-32]	; 0xffffffe0
3000417c:	e3a02020 	mov	r2, #32
30004180:	e5c32000 	strb	r2, [r3]
30004184:	e51b3020 	ldr	r3, [fp, #-32]	; 0xffffffe0
30004188:	e2833001 	add	r3, r3, #1
3000418c:	e50b3020 	str	r3, [fp, #-32]	; 0xffffffe0
30004190:	e51b3030 	ldr	r3, [fp, #-48]	; 0xffffffd0
30004194:	e2432001 	sub	r2, r3, #1
30004198:	e50b2030 	str	r2, [fp, #-48]	; 0xffffffd0
3000419c:	e51b2040 	ldr	r2, [fp, #-64]	; 0xffffffc0
300041a0:	e1530002 	cmp	r3, r2
300041a4:	caffffef 	bgt	30004168 <vsnprintf+0x6b4>
300041a8:	ea0000ec 	b	30004560 <vsnprintf+0xaac>
300041ac:	e51b3030 	ldr	r3, [fp, #-48]	; 0xffffffd0
300041b0:	e3730001 	cmn	r3, #1
300041b4:	1a000004 	bne	300041cc <vsnprintf+0x718>
300041b8:	e3a03008 	mov	r3, #8
300041bc:	e50b3030 	str	r3, [fp, #-48]	; 0xffffffd0
300041c0:	e51b302c 	ldr	r3, [fp, #-44]	; 0xffffffd4
300041c4:	e3833001 	orr	r3, r3, #1
300041c8:	e50b302c 	str	r3, [fp, #-44]	; 0xffffffd4
300041cc:	e51b305c 	ldr	r3, [fp, #-92]	; 0xffffffa4
300041d0:	e2833004 	add	r3, r3, #4
300041d4:	e50b305c 	str	r3, [fp, #-92]	; 0xffffffa4
300041d8:	e51b305c 	ldr	r3, [fp, #-92]	; 0xffffffa4
300041dc:	e2433004 	sub	r3, r3, #4
300041e0:	e5933000 	ldr	r3, [r3]
300041e4:	e3a04000 	mov	r4, #0
300041e8:	e3a02010 	mov	r2, #16
300041ec:	e58d2000 	str	r2, [sp]
300041f0:	e51b2030 	ldr	r2, [fp, #-48]	; 0xffffffd0
300041f4:	e58d2004 	str	r2, [sp, #4]
300041f8:	e51b2034 	ldr	r2, [fp, #-52]	; 0xffffffcc
300041fc:	e58d2008 	str	r2, [sp, #8]
30004200:	e51b202c 	ldr	r2, [fp, #-44]	; 0xffffffd4
30004204:	e58d200c 	str	r2, [sp, #12]
30004208:	e51b0020 	ldr	r0, [fp, #-32]	; 0xffffffe0
3000420c:	e51b1024 	ldr	r1, [fp, #-36]	; 0xffffffdc
30004210:	e1a02003 	mov	r2, r3
30004214:	e1a03004 	mov	r3, r4
30004218:	ebfffcfc 	bl	30003610 <number>
3000421c:	e50b0020 	str	r0, [fp, #-32]	; 0xffffffe0
30004220:	ea0000ce 	b	30004560 <vsnprintf+0xaac>
30004224:	e51b3038 	ldr	r3, [fp, #-56]	; 0xffffffc8
30004228:	e353006c 	cmp	r3, #108	; 0x6c
3000422c:	1a00000b 	bne	30004260 <vsnprintf+0x7ac>
30004230:	e51b305c 	ldr	r3, [fp, #-92]	; 0xffffffa4
30004234:	e2833004 	add	r3, r3, #4
30004238:	e50b305c 	str	r3, [fp, #-92]	; 0xffffffa4
3000423c:	e51b305c 	ldr	r3, [fp, #-92]	; 0xffffffa4
30004240:	e5133004 	ldr	r3, [r3, #-4]
30004244:	e50b3044 	str	r3, [fp, #-68]	; 0xffffffbc
30004248:	e51b2020 	ldr	r2, [fp, #-32]	; 0xffffffe0
3000424c:	e51b3050 	ldr	r3, [fp, #-80]	; 0xffffffb0
30004250:	e0632002 	rsb	r2, r3, r2
30004254:	e51b3044 	ldr	r3, [fp, #-68]	; 0xffffffbc
30004258:	e5832000 	str	r2, [r3]
3000425c:	ea00001e 	b	300042dc <vsnprintf+0x828>
30004260:	e51b3038 	ldr	r3, [fp, #-56]	; 0xffffffc8
30004264:	e353005a 	cmp	r3, #90	; 0x5a
30004268:	0a000002 	beq	30004278 <vsnprintf+0x7c4>
3000426c:	e51b3038 	ldr	r3, [fp, #-56]	; 0xffffffc8
30004270:	e353007a 	cmp	r3, #122	; 0x7a
30004274:	1a00000c 	bne	300042ac <vsnprintf+0x7f8>
30004278:	e51b305c 	ldr	r3, [fp, #-92]	; 0xffffffa4
3000427c:	e2833004 	add	r3, r3, #4
30004280:	e50b305c 	str	r3, [fp, #-92]	; 0xffffffa4
30004284:	e51b305c 	ldr	r3, [fp, #-92]	; 0xffffffa4
30004288:	e5133004 	ldr	r3, [r3, #-4]
3000428c:	e50b304c 	str	r3, [fp, #-76]	; 0xffffffb4
30004290:	e51b2020 	ldr	r2, [fp, #-32]	; 0xffffffe0
30004294:	e51b3050 	ldr	r3, [fp, #-80]	; 0xffffffb0
30004298:	e0633002 	rsb	r3, r3, r2
3000429c:	e1a02003 	mov	r2, r3
300042a0:	e51b304c 	ldr	r3, [fp, #-76]	; 0xffffffb4
300042a4:	e5832000 	str	r2, [r3]
300042a8:	ea00000b 	b	300042dc <vsnprintf+0x828>
300042ac:	e51b305c 	ldr	r3, [fp, #-92]	; 0xffffffa4
300042b0:	e2833004 	add	r3, r3, #4
300042b4:	e50b305c 	str	r3, [fp, #-92]	; 0xffffffa4
300042b8:	e51b305c 	ldr	r3, [fp, #-92]	; 0xffffffa4
300042bc:	e5133004 	ldr	r3, [r3, #-4]
300042c0:	e50b3048 	str	r3, [fp, #-72]	; 0xffffffb8
300042c4:	e51b2020 	ldr	r2, [fp, #-32]	; 0xffffffe0
300042c8:	e51b3050 	ldr	r3, [fp, #-80]	; 0xffffffb0
300042cc:	e0632002 	rsb	r2, r3, r2
300042d0:	e51b3048 	ldr	r3, [fp, #-72]	; 0xffffffb8
300042d4:	e5832000 	str	r2, [r3]
300042d8:	ea0000a0 	b	30004560 <vsnprintf+0xaac>
300042dc:	ea00009f 	b	30004560 <vsnprintf+0xaac>
300042e0:	e51b2020 	ldr	r2, [fp, #-32]	; 0xffffffe0
300042e4:	e51b3024 	ldr	r3, [fp, #-36]	; 0xffffffdc
300042e8:	e1520003 	cmp	r2, r3
300042ec:	8a000002 	bhi	300042fc <vsnprintf+0x848>
300042f0:	e51b3020 	ldr	r3, [fp, #-32]	; 0xffffffe0
300042f4:	e3a02025 	mov	r2, #37	; 0x25
300042f8:	e5c32000 	strb	r2, [r3]
300042fc:	e51b3020 	ldr	r3, [fp, #-32]	; 0xffffffe0
30004300:	e2833001 	add	r3, r3, #1
30004304:	e50b3020 	str	r3, [fp, #-32]	; 0xffffffe0
30004308:	ea000094 	b	30004560 <vsnprintf+0xaac>
3000430c:	e3a03008 	mov	r3, #8
30004310:	e50b301c 	str	r3, [fp, #-28]	; 0xffffffe4
30004314:	ea000028 	b	300043bc <vsnprintf+0x908>
30004318:	e51b302c 	ldr	r3, [fp, #-44]	; 0xffffffd4
3000431c:	e3833040 	orr	r3, r3, #64	; 0x40
30004320:	e50b302c 	str	r3, [fp, #-44]	; 0xffffffd4
30004324:	e3a03010 	mov	r3, #16
30004328:	e50b301c 	str	r3, [fp, #-28]	; 0xffffffe4
3000432c:	ea000022 	b	300043bc <vsnprintf+0x908>
30004330:	e51b302c 	ldr	r3, [fp, #-44]	; 0xffffffd4
30004334:	e3833002 	orr	r3, r3, #2
30004338:	e50b302c 	str	r3, [fp, #-44]	; 0xffffffd4
3000433c:	ea00001d 	b	300043b8 <vsnprintf+0x904>
30004340:	e51b2020 	ldr	r2, [fp, #-32]	; 0xffffffe0
30004344:	e51b3024 	ldr	r3, [fp, #-36]	; 0xffffffdc
30004348:	e1520003 	cmp	r2, r3
3000434c:	8a000002 	bhi	3000435c <vsnprintf+0x8a8>
30004350:	e51b3020 	ldr	r3, [fp, #-32]	; 0xffffffe0
30004354:	e3a02025 	mov	r2, #37	; 0x25
30004358:	e5c32000 	strb	r2, [r3]
3000435c:	e51b3020 	ldr	r3, [fp, #-32]	; 0xffffffe0
30004360:	e2833001 	add	r3, r3, #1
30004364:	e50b3020 	str	r3, [fp, #-32]	; 0xffffffe0
30004368:	e51b3058 	ldr	r3, [fp, #-88]	; 0xffffffa8
3000436c:	e5d33000 	ldrb	r3, [r3]
30004370:	e3530000 	cmp	r3, #0
30004374:	0a00000b 	beq	300043a8 <vsnprintf+0x8f4>
30004378:	e51b2020 	ldr	r2, [fp, #-32]	; 0xffffffe0
3000437c:	e51b3024 	ldr	r3, [fp, #-36]	; 0xffffffdc
30004380:	e1520003 	cmp	r2, r3
30004384:	8a000003 	bhi	30004398 <vsnprintf+0x8e4>
30004388:	e51b3058 	ldr	r3, [fp, #-88]	; 0xffffffa8
3000438c:	e5d32000 	ldrb	r2, [r3]
30004390:	e51b3020 	ldr	r3, [fp, #-32]	; 0xffffffe0
30004394:	e5c32000 	strb	r2, [r3]
30004398:	e51b3020 	ldr	r3, [fp, #-32]	; 0xffffffe0
3000439c:	e2833001 	add	r3, r3, #1
300043a0:	e50b3020 	str	r3, [fp, #-32]	; 0xffffffe0
300043a4:	ea00006d 	b	30004560 <vsnprintf+0xaac>
300043a8:	e51b3058 	ldr	r3, [fp, #-88]	; 0xffffffa8
300043ac:	e2433001 	sub	r3, r3, #1
300043b0:	e50b3058 	str	r3, [fp, #-88]	; 0xffffffa8
300043b4:	ea000069 	b	30004560 <vsnprintf+0xaac>
300043b8:	e1a00000 	nop			; (mov r0, r0)
300043bc:	e51b3038 	ldr	r3, [fp, #-56]	; 0xffffffc8
300043c0:	e353004c 	cmp	r3, #76	; 0x4c
300043c4:	1a000008 	bne	300043ec <vsnprintf+0x938>
300043c8:	e51b305c 	ldr	r3, [fp, #-92]	; 0xffffffa4
300043cc:	e2833008 	add	r3, r3, #8
300043d0:	e50b305c 	str	r3, [fp, #-92]	; 0xffffffa4
300043d4:	e51b305c 	ldr	r3, [fp, #-92]	; 0xffffffa4
300043d8:	e2433008 	sub	r3, r3, #8
300043dc:	e8930018 	ldm	r3, {r3, r4}
300043e0:	e50b3014 	str	r3, [fp, #-20]	; 0xffffffec
300043e4:	e50b4010 	str	r4, [fp, #-16]
300043e8:	ea00004e 	b	30004528 <vsnprintf+0xa74>
300043ec:	e51b3038 	ldr	r3, [fp, #-56]	; 0xffffffc8
300043f0:	e353006c 	cmp	r3, #108	; 0x6c
300043f4:	1a000011 	bne	30004440 <vsnprintf+0x98c>
300043f8:	e51b305c 	ldr	r3, [fp, #-92]	; 0xffffffa4
300043fc:	e2833004 	add	r3, r3, #4
30004400:	e50b305c 	str	r3, [fp, #-92]	; 0xffffffa4
30004404:	e51b305c 	ldr	r3, [fp, #-92]	; 0xffffffa4
30004408:	e2433004 	sub	r3, r3, #4
3000440c:	e5933000 	ldr	r3, [r3]
30004410:	e3a04000 	mov	r4, #0
30004414:	e50b3014 	str	r3, [fp, #-20]	; 0xffffffec
30004418:	e50b4010 	str	r4, [fp, #-16]
3000441c:	e51b302c 	ldr	r3, [fp, #-44]	; 0xffffffd4
30004420:	e2033002 	and	r3, r3, #2
30004424:	e3530000 	cmp	r3, #0
30004428:	0a00003e 	beq	30004528 <vsnprintf+0xa74>
3000442c:	e51b3014 	ldr	r3, [fp, #-20]	; 0xffffffec
30004430:	e1a04fc3 	asr	r4, r3, #31
30004434:	e50b3014 	str	r3, [fp, #-20]	; 0xffffffec
30004438:	e50b4010 	str	r4, [fp, #-16]
3000443c:	ea000039 	b	30004528 <vsnprintf+0xa74>
30004440:	e51b3038 	ldr	r3, [fp, #-56]	; 0xffffffc8
30004444:	e353005a 	cmp	r3, #90	; 0x5a
30004448:	0a000002 	beq	30004458 <vsnprintf+0x9a4>
3000444c:	e51b3038 	ldr	r3, [fp, #-56]	; 0xffffffc8
30004450:	e353007a 	cmp	r3, #122	; 0x7a
30004454:	1a000009 	bne	30004480 <vsnprintf+0x9cc>
30004458:	e51b305c 	ldr	r3, [fp, #-92]	; 0xffffffa4
3000445c:	e2833004 	add	r3, r3, #4
30004460:	e50b305c 	str	r3, [fp, #-92]	; 0xffffffa4
30004464:	e51b305c 	ldr	r3, [fp, #-92]	; 0xffffffa4
30004468:	e2433004 	sub	r3, r3, #4
3000446c:	e5933000 	ldr	r3, [r3]
30004470:	e3a04000 	mov	r4, #0
30004474:	e50b3014 	str	r3, [fp, #-20]	; 0xffffffec
30004478:	e50b4010 	str	r4, [fp, #-16]
3000447c:	ea000029 	b	30004528 <vsnprintf+0xa74>
30004480:	e51b3038 	ldr	r3, [fp, #-56]	; 0xffffffc8
30004484:	e3530068 	cmp	r3, #104	; 0x68
30004488:	1a000015 	bne	300044e4 <vsnprintf+0xa30>
3000448c:	e51b305c 	ldr	r3, [fp, #-92]	; 0xffffffa4
30004490:	e2833004 	add	r3, r3, #4
30004494:	e50b305c 	str	r3, [fp, #-92]	; 0xffffffa4
30004498:	e51b305c 	ldr	r3, [fp, #-92]	; 0xffffffa4
3000449c:	e2433004 	sub	r3, r3, #4
300044a0:	e5933000 	ldr	r3, [r3]
300044a4:	e1a03803 	lsl	r3, r3, #16
300044a8:	e1a03823 	lsr	r3, r3, #16
300044ac:	e3a04000 	mov	r4, #0
300044b0:	e50b3014 	str	r3, [fp, #-20]	; 0xffffffec
300044b4:	e50b4010 	str	r4, [fp, #-16]
300044b8:	e51b302c 	ldr	r3, [fp, #-44]	; 0xffffffd4
300044bc:	e2033002 	and	r3, r3, #2
300044c0:	e3530000 	cmp	r3, #0
300044c4:	0a000017 	beq	30004528 <vsnprintf+0xa74>
300044c8:	e15b31b4 	ldrh	r3, [fp, #-20]	; 0xffffffec
300044cc:	e1a03803 	lsl	r3, r3, #16
300044d0:	e1a03843 	asr	r3, r3, #16
300044d4:	e1a04fc3 	asr	r4, r3, #31
300044d8:	e50b3014 	str	r3, [fp, #-20]	; 0xffffffec
300044dc:	e50b4010 	str	r4, [fp, #-16]
300044e0:	ea000010 	b	30004528 <vsnprintf+0xa74>
300044e4:	e51b305c 	ldr	r3, [fp, #-92]	; 0xffffffa4
300044e8:	e2833004 	add	r3, r3, #4
300044ec:	e50b305c 	str	r3, [fp, #-92]	; 0xffffffa4
300044f0:	e51b305c 	ldr	r3, [fp, #-92]	; 0xffffffa4
300044f4:	e2433004 	sub	r3, r3, #4
300044f8:	e5933000 	ldr	r3, [r3]
300044fc:	e3a04000 	mov	r4, #0
30004500:	e50b3014 	str	r3, [fp, #-20]	; 0xffffffec
30004504:	e50b4010 	str	r4, [fp, #-16]
30004508:	e51b302c 	ldr	r3, [fp, #-44]	; 0xffffffd4
3000450c:	e2033002 	and	r3, r3, #2
30004510:	e3530000 	cmp	r3, #0
30004514:	0a000003 	beq	30004528 <vsnprintf+0xa74>
30004518:	e51b3014 	ldr	r3, [fp, #-20]	; 0xffffffec
3000451c:	e1a04fc3 	asr	r4, r3, #31
30004520:	e50b3014 	str	r3, [fp, #-20]	; 0xffffffec
30004524:	e50b4010 	str	r4, [fp, #-16]
30004528:	e51b301c 	ldr	r3, [fp, #-28]	; 0xffffffe4
3000452c:	e58d3000 	str	r3, [sp]
30004530:	e51b3030 	ldr	r3, [fp, #-48]	; 0xffffffd0
30004534:	e58d3004 	str	r3, [sp, #4]
30004538:	e51b3034 	ldr	r3, [fp, #-52]	; 0xffffffcc
3000453c:	e58d3008 	str	r3, [sp, #8]
30004540:	e51b302c 	ldr	r3, [fp, #-44]	; 0xffffffd4
30004544:	e58d300c 	str	r3, [sp, #12]
30004548:	e51b0020 	ldr	r0, [fp, #-32]	; 0xffffffe0
3000454c:	e51b1024 	ldr	r1, [fp, #-36]	; 0xffffffdc
30004550:	e24b3014 	sub	r3, fp, #20
30004554:	e893000c 	ldm	r3, {r2, r3}
30004558:	ebfffc2c 	bl	30003610 <number>
3000455c:	e50b0020 	str	r0, [fp, #-32]	; 0xffffffe0
30004560:	e51b3058 	ldr	r3, [fp, #-88]	; 0xffffffa8
30004564:	e2833001 	add	r3, r3, #1
30004568:	e50b3058 	str	r3, [fp, #-88]	; 0xffffffa8
3000456c:	e51b3058 	ldr	r3, [fp, #-88]	; 0xffffffa8
30004570:	e5d33000 	ldrb	r3, [r3]
30004574:	e3530000 	cmp	r3, #0
30004578:	1afffd72 	bne	30003b48 <vsnprintf+0x94>
3000457c:	e51b2020 	ldr	r2, [fp, #-32]	; 0xffffffe0
30004580:	e51b3024 	ldr	r3, [fp, #-36]	; 0xffffffdc
30004584:	e1520003 	cmp	r2, r3
30004588:	8a000003 	bhi	3000459c <vsnprintf+0xae8>
3000458c:	e51b3020 	ldr	r3, [fp, #-32]	; 0xffffffe0
30004590:	e3a02000 	mov	r2, #0
30004594:	e5c32000 	strb	r2, [r3]
30004598:	ea000005 	b	300045b4 <vsnprintf+0xb00>
3000459c:	e51b3054 	ldr	r3, [fp, #-84]	; 0xffffffac
300045a0:	e3530000 	cmp	r3, #0
300045a4:	0a000002 	beq	300045b4 <vsnprintf+0xb00>
300045a8:	e51b3024 	ldr	r3, [fp, #-36]	; 0xffffffdc
300045ac:	e3a02000 	mov	r2, #0
300045b0:	e5c32000 	strb	r2, [r3]
300045b4:	e51b2020 	ldr	r2, [fp, #-32]	; 0xffffffe0
300045b8:	e51b3050 	ldr	r3, [fp, #-80]	; 0xffffffb0
300045bc:	e0633002 	rsb	r3, r3, r2
300045c0:	e1a00003 	mov	r0, r3
300045c4:	e24bd008 	sub	sp, fp, #8
300045c8:	e8bd4810 	pop	{r4, fp, lr}
300045cc:	e12fff1e 	bx	lr
300045d0:	30006fd8 	ldrdcc	r6, [r0], -r8
300045d4:	300056d0 	ldrdcc	r5, [r0], -r0
300045d8:	30005678 	andcc	r5, r0, r8, ror r6

300045dc <vscnprintf>:
300045dc:	e92d4800 	push	{fp, lr}
300045e0:	e28db004 	add	fp, sp, #4
300045e4:	e24dd018 	sub	sp, sp, #24
300045e8:	e50b0010 	str	r0, [fp, #-16]
300045ec:	e50b1014 	str	r1, [fp, #-20]	; 0xffffffec
300045f0:	e50b2018 	str	r2, [fp, #-24]	; 0xffffffe8
300045f4:	e50b301c 	str	r3, [fp, #-28]	; 0xffffffe4
300045f8:	e51b0010 	ldr	r0, [fp, #-16]
300045fc:	e51b1014 	ldr	r1, [fp, #-20]	; 0xffffffec
30004600:	e51b2018 	ldr	r2, [fp, #-24]	; 0xffffffe8
30004604:	e51b301c 	ldr	r3, [fp, #-28]	; 0xffffffe4
30004608:	ebfffd29 	bl	30003ab4 <vsnprintf>
3000460c:	e50b0008 	str	r0, [fp, #-8]
30004610:	e51b2008 	ldr	r2, [fp, #-8]
30004614:	e51b3014 	ldr	r3, [fp, #-20]	; 0xffffffec
30004618:	e1520003 	cmp	r2, r3
3000461c:	3a000002 	bcc	3000462c <vscnprintf+0x50>
30004620:	e51b3014 	ldr	r3, [fp, #-20]	; 0xffffffec
30004624:	e2433001 	sub	r3, r3, #1
30004628:	ea000000 	b	30004630 <vscnprintf+0x54>
3000462c:	e51b3008 	ldr	r3, [fp, #-8]
30004630:	e1a00003 	mov	r0, r3
30004634:	e24bd004 	sub	sp, fp, #4
30004638:	e8bd4800 	pop	{fp, lr}
3000463c:	e12fff1e 	bx	lr

30004640 <snprintf>:
30004640:	e92d000c 	push	{r2, r3}
30004644:	e92d4800 	push	{fp, lr}
30004648:	e28db004 	add	fp, sp, #4
3000464c:	e24dd010 	sub	sp, sp, #16
30004650:	e50b0010 	str	r0, [fp, #-16]
30004654:	e50b1014 	str	r1, [fp, #-20]	; 0xffffffec
30004658:	e28b3008 	add	r3, fp, #8
3000465c:	e50b3008 	str	r3, [fp, #-8]
30004660:	e59b3004 	ldr	r3, [fp, #4]
30004664:	e51b0010 	ldr	r0, [fp, #-16]
30004668:	e51b1014 	ldr	r1, [fp, #-20]	; 0xffffffec
3000466c:	e1a02003 	mov	r2, r3
30004670:	e51b3008 	ldr	r3, [fp, #-8]
30004674:	ebfffd0e 	bl	30003ab4 <vsnprintf>
30004678:	e50b000c 	str	r0, [fp, #-12]
3000467c:	e51b300c 	ldr	r3, [fp, #-12]
30004680:	e1a00003 	mov	r0, r3
30004684:	e24bd004 	sub	sp, fp, #4
30004688:	e8bd4800 	pop	{fp, lr}
3000468c:	e28dd008 	add	sp, sp, #8
30004690:	e12fff1e 	bx	lr

30004694 <scnprintf>:
30004694:	e92d000c 	push	{r2, r3}
30004698:	e92d4800 	push	{fp, lr}
3000469c:	e28db004 	add	fp, sp, #4
300046a0:	e24dd010 	sub	sp, sp, #16
300046a4:	e50b0010 	str	r0, [fp, #-16]
300046a8:	e50b1014 	str	r1, [fp, #-20]	; 0xffffffec
300046ac:	e28b3008 	add	r3, fp, #8
300046b0:	e50b3008 	str	r3, [fp, #-8]
300046b4:	e59b3004 	ldr	r3, [fp, #4]
300046b8:	e51b0010 	ldr	r0, [fp, #-16]
300046bc:	e51b1014 	ldr	r1, [fp, #-20]	; 0xffffffec
300046c0:	e1a02003 	mov	r2, r3
300046c4:	e51b3008 	ldr	r3, [fp, #-8]
300046c8:	ebfffcf9 	bl	30003ab4 <vsnprintf>
300046cc:	e50b000c 	str	r0, [fp, #-12]
300046d0:	e51b200c 	ldr	r2, [fp, #-12]
300046d4:	e51b3014 	ldr	r3, [fp, #-20]	; 0xffffffec
300046d8:	e1520003 	cmp	r2, r3
300046dc:	3a000002 	bcc	300046ec <scnprintf+0x58>
300046e0:	e51b3014 	ldr	r3, [fp, #-20]	; 0xffffffec
300046e4:	e2433001 	sub	r3, r3, #1
300046e8:	ea000000 	b	300046f0 <scnprintf+0x5c>
300046ec:	e51b300c 	ldr	r3, [fp, #-12]
300046f0:	e1a00003 	mov	r0, r3
300046f4:	e24bd004 	sub	sp, fp, #4
300046f8:	e8bd4800 	pop	{fp, lr}
300046fc:	e28dd008 	add	sp, sp, #8
30004700:	e12fff1e 	bx	lr

30004704 <vsprintf>:
30004704:	e92d4800 	push	{fp, lr}
30004708:	e28db004 	add	fp, sp, #4
3000470c:	e24dd010 	sub	sp, sp, #16
30004710:	e50b0008 	str	r0, [fp, #-8]
30004714:	e50b100c 	str	r1, [fp, #-12]
30004718:	e50b2010 	str	r2, [fp, #-16]
3000471c:	e51b0008 	ldr	r0, [fp, #-8]
30004720:	e3e01102 	mvn	r1, #-2147483648	; 0x80000000
30004724:	e51b200c 	ldr	r2, [fp, #-12]
30004728:	e51b3010 	ldr	r3, [fp, #-16]
3000472c:	ebfffce0 	bl	30003ab4 <vsnprintf>
30004730:	e1a03000 	mov	r3, r0
30004734:	e1a00003 	mov	r0, r3
30004738:	e24bd004 	sub	sp, fp, #4
3000473c:	e8bd4800 	pop	{fp, lr}
30004740:	e12fff1e 	bx	lr

30004744 <sprintf>:
30004744:	e92d000e 	push	{r1, r2, r3}
30004748:	e92d4800 	push	{fp, lr}
3000474c:	e28db004 	add	fp, sp, #4
30004750:	e24dd014 	sub	sp, sp, #20
30004754:	e50b0014 	str	r0, [fp, #-20]	; 0xffffffec
30004758:	e28b3008 	add	r3, fp, #8
3000475c:	e50b300c 	str	r3, [fp, #-12]
30004760:	e59b3004 	ldr	r3, [fp, #4]
30004764:	e51b0014 	ldr	r0, [fp, #-20]	; 0xffffffec
30004768:	e1a01003 	mov	r1, r3
3000476c:	e51b200c 	ldr	r2, [fp, #-12]
30004770:	ebffffe3 	bl	30004704 <vsprintf>
30004774:	e50b0010 	str	r0, [fp, #-16]
30004778:	e51b3010 	ldr	r3, [fp, #-16]
3000477c:	e1a00003 	mov	r0, r3
30004780:	e24bd004 	sub	sp, fp, #4
30004784:	e8bd4800 	pop	{fp, lr}
30004788:	e28dd00c 	add	sp, sp, #12
3000478c:	e12fff1e 	bx	lr

30004790 <vsscanf>:
30004790:	e92d4810 	push	{r4, fp, lr}
30004794:	e28db008 	add	fp, sp, #8
30004798:	e24dd06c 	sub	sp, sp, #108	; 0x6c
3000479c:	e50b0068 	str	r0, [fp, #-104]	; 0xffffff98
300047a0:	e50b106c 	str	r1, [fp, #-108]	; 0xffffff94
300047a4:	e50b2070 	str	r2, [fp, #-112]	; 0xffffff90
300047a8:	e51b3068 	ldr	r3, [fp, #-104]	; 0xffffff98
300047ac:	e50b3010 	str	r3, [fp, #-16]
300047b0:	e3a03000 	mov	r3, #0
300047b4:	e50b3018 	str	r3, [fp, #-24]	; 0xffffffe8
300047b8:	e3a03000 	mov	r3, #0
300047bc:	e50b3028 	str	r3, [fp, #-40]	; 0xffffffd8
300047c0:	ea0002d2 	b	30005310 <vsscanf+0xb80>
300047c4:	e51b306c 	ldr	r3, [fp, #-108]	; 0xffffff94
300047c8:	e5d33000 	ldrb	r3, [r3]
300047cc:	e1a02003 	mov	r2, r3
300047d0:	e59f3b6c 	ldr	r3, [pc, #2924]	; 30005344 <vsscanf+0xbb4>
300047d4:	e7d33002 	ldrb	r3, [r3, r2]
300047d8:	e2033020 	and	r3, r3, #32
300047dc:	e3530000 	cmp	r3, #0
300047e0:	0a000017 	beq	30004844 <vsscanf+0xb4>
300047e4:	ea000002 	b	300047f4 <vsscanf+0x64>
300047e8:	e51b306c 	ldr	r3, [fp, #-108]	; 0xffffff94
300047ec:	e2833001 	add	r3, r3, #1
300047f0:	e50b306c 	str	r3, [fp, #-108]	; 0xffffff94
300047f4:	e51b306c 	ldr	r3, [fp, #-108]	; 0xffffff94
300047f8:	e5d33000 	ldrb	r3, [r3]
300047fc:	e1a02003 	mov	r2, r3
30004800:	e59f3b3c 	ldr	r3, [pc, #2876]	; 30005344 <vsscanf+0xbb4>
30004804:	e7d33002 	ldrb	r3, [r3, r2]
30004808:	e2033020 	and	r3, r3, #32
3000480c:	e3530000 	cmp	r3, #0
30004810:	1afffff4 	bne	300047e8 <vsscanf+0x58>
30004814:	ea000002 	b	30004824 <vsscanf+0x94>
30004818:	e51b3010 	ldr	r3, [fp, #-16]
3000481c:	e2833001 	add	r3, r3, #1
30004820:	e50b3010 	str	r3, [fp, #-16]
30004824:	e51b3010 	ldr	r3, [fp, #-16]
30004828:	e5d33000 	ldrb	r3, [r3]
3000482c:	e1a02003 	mov	r2, r3
30004830:	e59f3b0c 	ldr	r3, [pc, #2828]	; 30005344 <vsscanf+0xbb4>
30004834:	e7d33002 	ldrb	r3, [r3, r2]
30004838:	e2033020 	and	r3, r3, #32
3000483c:	e3530000 	cmp	r3, #0
30004840:	1afffff4 	bne	30004818 <vsscanf+0x88>
30004844:	e51b306c 	ldr	r3, [fp, #-108]	; 0xffffff94
30004848:	e5d33000 	ldrb	r3, [r3]
3000484c:	e3530025 	cmp	r3, #37	; 0x25
30004850:	0a00000f 	beq	30004894 <vsscanf+0x104>
30004854:	e51b306c 	ldr	r3, [fp, #-108]	; 0xffffff94
30004858:	e5d33000 	ldrb	r3, [r3]
3000485c:	e3530000 	cmp	r3, #0
30004860:	0a00000b 	beq	30004894 <vsscanf+0x104>
30004864:	e51b306c 	ldr	r3, [fp, #-108]	; 0xffffff94
30004868:	e2832001 	add	r2, r3, #1
3000486c:	e50b206c 	str	r2, [fp, #-108]	; 0xffffff94
30004870:	e5d32000 	ldrb	r2, [r3]
30004874:	e51b3010 	ldr	r3, [fp, #-16]
30004878:	e2831001 	add	r1, r3, #1
3000487c:	e50b1010 	str	r1, [fp, #-16]
30004880:	e5d33000 	ldrb	r3, [r3]
30004884:	e1520003 	cmp	r2, r3
30004888:	0a000000 	beq	30004890 <vsscanf+0x100>
3000488c:	ea0002a7 	b	30005330 <vsscanf+0xba0>
30004890:	ea00029e 	b	30005310 <vsscanf+0xb80>
30004894:	e51b306c 	ldr	r3, [fp, #-108]	; 0xffffff94
30004898:	e5d33000 	ldrb	r3, [r3]
3000489c:	e3530000 	cmp	r3, #0
300048a0:	1a000000 	bne	300048a8 <vsscanf+0x118>
300048a4:	ea0002a1 	b	30005330 <vsscanf+0xba0>
300048a8:	e51b306c 	ldr	r3, [fp, #-108]	; 0xffffff94
300048ac:	e2833001 	add	r3, r3, #1
300048b0:	e50b306c 	str	r3, [fp, #-108]	; 0xffffff94
300048b4:	e51b306c 	ldr	r3, [fp, #-108]	; 0xffffff94
300048b8:	e5d33000 	ldrb	r3, [r3]
300048bc:	e353002a 	cmp	r3, #42	; 0x2a
300048c0:	1a000020 	bne	30004948 <vsscanf+0x1b8>
300048c4:	ea000002 	b	300048d4 <vsscanf+0x144>
300048c8:	e51b306c 	ldr	r3, [fp, #-108]	; 0xffffff94
300048cc:	e2833001 	add	r3, r3, #1
300048d0:	e50b306c 	str	r3, [fp, #-108]	; 0xffffff94
300048d4:	e51b306c 	ldr	r3, [fp, #-108]	; 0xffffff94
300048d8:	e5d33000 	ldrb	r3, [r3]
300048dc:	e1a02003 	mov	r2, r3
300048e0:	e59f3a5c 	ldr	r3, [pc, #2652]	; 30005344 <vsscanf+0xbb4>
300048e4:	e7d33002 	ldrb	r3, [r3, r2]
300048e8:	e2033020 	and	r3, r3, #32
300048ec:	e3530000 	cmp	r3, #0
300048f0:	1a000003 	bne	30004904 <vsscanf+0x174>
300048f4:	e51b306c 	ldr	r3, [fp, #-108]	; 0xffffff94
300048f8:	e5d33000 	ldrb	r3, [r3]
300048fc:	e3530000 	cmp	r3, #0
30004900:	1afffff0 	bne	300048c8 <vsscanf+0x138>
30004904:	ea000002 	b	30004914 <vsscanf+0x184>
30004908:	e51b3010 	ldr	r3, [fp, #-16]
3000490c:	e2833001 	add	r3, r3, #1
30004910:	e50b3010 	str	r3, [fp, #-16]
30004914:	e51b3010 	ldr	r3, [fp, #-16]
30004918:	e5d33000 	ldrb	r3, [r3]
3000491c:	e1a02003 	mov	r2, r3
30004920:	e59f3a1c 	ldr	r3, [pc, #2588]	; 30005344 <vsscanf+0xbb4>
30004924:	e7d33002 	ldrb	r3, [r3, r2]
30004928:	e2033020 	and	r3, r3, #32
3000492c:	e3530000 	cmp	r3, #0
30004930:	1a000003 	bne	30004944 <vsscanf+0x1b4>
30004934:	e51b3010 	ldr	r3, [fp, #-16]
30004938:	e5d33000 	ldrb	r3, [r3]
3000493c:	e3530000 	cmp	r3, #0
30004940:	1afffff0 	bne	30004908 <vsscanf+0x178>
30004944:	ea000271 	b	30005310 <vsscanf+0xb80>
30004948:	e3e03000 	mvn	r3, #0
3000494c:	e50b3024 	str	r3, [fp, #-36]	; 0xffffffdc
30004950:	e51b306c 	ldr	r3, [fp, #-108]	; 0xffffff94
30004954:	e5d33000 	ldrb	r3, [r3]
30004958:	e1a02003 	mov	r2, r3
3000495c:	e59f39e0 	ldr	r3, [pc, #2528]	; 30005344 <vsscanf+0xbb4>
30004960:	e7d33002 	ldrb	r3, [r3, r2]
30004964:	e2033004 	and	r3, r3, #4
30004968:	e3530000 	cmp	r3, #0
3000496c:	0a000003 	beq	30004980 <vsscanf+0x1f0>
30004970:	e24b306c 	sub	r3, fp, #108	; 0x6c
30004974:	e1a00003 	mov	r0, r3
30004978:	ebfffaff 	bl	3000357c <skip_atoi>
3000497c:	e50b0024 	str	r0, [fp, #-36]	; 0xffffffdc
30004980:	e3e03000 	mvn	r3, #0
30004984:	e50b301c 	str	r3, [fp, #-28]	; 0xffffffe4
30004988:	e51b306c 	ldr	r3, [fp, #-108]	; 0xffffff94
3000498c:	e5d33000 	ldrb	r3, [r3]
30004990:	e3530068 	cmp	r3, #104	; 0x68
30004994:	0a00000f 	beq	300049d8 <vsscanf+0x248>
30004998:	e51b306c 	ldr	r3, [fp, #-108]	; 0xffffff94
3000499c:	e5d33000 	ldrb	r3, [r3]
300049a0:	e353006c 	cmp	r3, #108	; 0x6c
300049a4:	0a00000b 	beq	300049d8 <vsscanf+0x248>
300049a8:	e51b306c 	ldr	r3, [fp, #-108]	; 0xffffff94
300049ac:	e5d33000 	ldrb	r3, [r3]
300049b0:	e353004c 	cmp	r3, #76	; 0x4c
300049b4:	0a000007 	beq	300049d8 <vsscanf+0x248>
300049b8:	e51b306c 	ldr	r3, [fp, #-108]	; 0xffffff94
300049bc:	e5d33000 	ldrb	r3, [r3]
300049c0:	e353005a 	cmp	r3, #90	; 0x5a
300049c4:	0a000003 	beq	300049d8 <vsscanf+0x248>
300049c8:	e51b306c 	ldr	r3, [fp, #-108]	; 0xffffff94
300049cc:	e5d33000 	ldrb	r3, [r3]
300049d0:	e353007a 	cmp	r3, #122	; 0x7a
300049d4:	1a00001f 	bne	30004a58 <vsscanf+0x2c8>
300049d8:	e51b306c 	ldr	r3, [fp, #-108]	; 0xffffff94
300049dc:	e2832001 	add	r2, r3, #1
300049e0:	e50b206c 	str	r2, [fp, #-108]	; 0xffffff94
300049e4:	e5d33000 	ldrb	r3, [r3]
300049e8:	e50b301c 	str	r3, [fp, #-28]	; 0xffffffe4
300049ec:	e51b306c 	ldr	r3, [fp, #-108]	; 0xffffff94
300049f0:	e5d33000 	ldrb	r3, [r3]
300049f4:	e1a02003 	mov	r2, r3
300049f8:	e51b301c 	ldr	r3, [fp, #-28]	; 0xffffffe4
300049fc:	e1520003 	cmp	r2, r3
30004a00:	03a03001 	moveq	r3, #1
30004a04:	13a03000 	movne	r3, #0
30004a08:	e20330ff 	and	r3, r3, #255	; 0xff
30004a0c:	e3530000 	cmp	r3, #0
30004a10:	0a000010 	beq	30004a58 <vsscanf+0x2c8>
30004a14:	e51b301c 	ldr	r3, [fp, #-28]	; 0xffffffe4
30004a18:	e3530068 	cmp	r3, #104	; 0x68
30004a1c:	1a000005 	bne	30004a38 <vsscanf+0x2a8>
30004a20:	e3a03048 	mov	r3, #72	; 0x48
30004a24:	e50b301c 	str	r3, [fp, #-28]	; 0xffffffe4
30004a28:	e51b306c 	ldr	r3, [fp, #-108]	; 0xffffff94
30004a2c:	e2833001 	add	r3, r3, #1
30004a30:	e50b306c 	str	r3, [fp, #-108]	; 0xffffff94
30004a34:	ea000007 	b	30004a58 <vsscanf+0x2c8>
30004a38:	e51b301c 	ldr	r3, [fp, #-28]	; 0xffffffe4
30004a3c:	e353006c 	cmp	r3, #108	; 0x6c
30004a40:	1a000004 	bne	30004a58 <vsscanf+0x2c8>
30004a44:	e3a0304c 	mov	r3, #76	; 0x4c
30004a48:	e50b301c 	str	r3, [fp, #-28]	; 0xffffffe4
30004a4c:	e51b306c 	ldr	r3, [fp, #-108]	; 0xffffff94
30004a50:	e2833001 	add	r3, r3, #1
30004a54:	e50b306c 	str	r3, [fp, #-108]	; 0xffffff94
30004a58:	e3a0300a 	mov	r3, #10
30004a5c:	e50b3020 	str	r3, [fp, #-32]	; 0xffffffe0
30004a60:	e3a03000 	mov	r3, #0
30004a64:	e50b3028 	str	r3, [fp, #-40]	; 0xffffffd8
30004a68:	e51b306c 	ldr	r3, [fp, #-108]	; 0xffffff94
30004a6c:	e5d33000 	ldrb	r3, [r3]
30004a70:	e3530000 	cmp	r3, #0
30004a74:	0a00022d 	beq	30005330 <vsscanf+0xba0>
30004a78:	e51b3010 	ldr	r3, [fp, #-16]
30004a7c:	e5d33000 	ldrb	r3, [r3]
30004a80:	e3530000 	cmp	r3, #0
30004a84:	0a000229 	beq	30005330 <vsscanf+0xba0>
30004a88:	e51b306c 	ldr	r3, [fp, #-108]	; 0xffffff94
30004a8c:	e2832001 	add	r2, r3, #1
30004a90:	e50b206c 	str	r2, [fp, #-108]	; 0xffffff94
30004a94:	e5d33000 	ldrb	r3, [r3]
30004a98:	e2433025 	sub	r3, r3, #37	; 0x25
30004a9c:	e3530053 	cmp	r3, #83	; 0x53
30004aa0:	979ff103 	ldrls	pc, [pc, r3, lsl #2]
30004aa4:	ea0000cc 	b	30004ddc <vsscanf+0x64c>
30004aa8:	30004db8 			; <UNDEFINED> instruction: 0x30004db8
30004aac:	30004ddc 	ldrdcc	r4, [r0], -ip
30004ab0:	30004ddc 	ldrdcc	r4, [r0], -ip
30004ab4:	30004ddc 	ldrdcc	r4, [r0], -ip
30004ab8:	30004ddc 	ldrdcc	r4, [r0], -ip
30004abc:	30004ddc 	ldrdcc	r4, [r0], -ip
30004ac0:	30004ddc 	ldrdcc	r4, [r0], -ip
30004ac4:	30004ddc 	ldrdcc	r4, [r0], -ip
30004ac8:	30004ddc 	ldrdcc	r4, [r0], -ip
30004acc:	30004ddc 	ldrdcc	r4, [r0], -ip
30004ad0:	30004ddc 	ldrdcc	r4, [r0], -ip
30004ad4:	30004ddc 	ldrdcc	r4, [r0], -ip
30004ad8:	30004ddc 	ldrdcc	r4, [r0], -ip
30004adc:	30004ddc 	ldrdcc	r4, [r0], -ip
30004ae0:	30004ddc 	ldrdcc	r4, [r0], -ip
30004ae4:	30004ddc 	ldrdcc	r4, [r0], -ip
30004ae8:	30004ddc 	ldrdcc	r4, [r0], -ip
30004aec:	30004ddc 	ldrdcc	r4, [r0], -ip
30004af0:	30004ddc 	ldrdcc	r4, [r0], -ip
30004af4:	30004ddc 	ldrdcc	r4, [r0], -ip
30004af8:	30004ddc 	ldrdcc	r4, [r0], -ip
30004afc:	30004ddc 	ldrdcc	r4, [r0], -ip
30004b00:	30004ddc 	ldrdcc	r4, [r0], -ip
30004b04:	30004ddc 	ldrdcc	r4, [r0], -ip
30004b08:	30004ddc 	ldrdcc	r4, [r0], -ip
30004b0c:	30004ddc 	ldrdcc	r4, [r0], -ip
30004b10:	30004ddc 	ldrdcc	r4, [r0], -ip
30004b14:	30004ddc 	ldrdcc	r4, [r0], -ip
30004b18:	30004ddc 	ldrdcc	r4, [r0], -ip
30004b1c:	30004ddc 	ldrdcc	r4, [r0], -ip
30004b20:	30004ddc 	ldrdcc	r4, [r0], -ip
30004b24:	30004ddc 	ldrdcc	r4, [r0], -ip
30004b28:	30004ddc 	ldrdcc	r4, [r0], -ip
30004b2c:	30004ddc 	ldrdcc	r4, [r0], -ip
30004b30:	30004ddc 	ldrdcc	r4, [r0], -ip
30004b34:	30004ddc 	ldrdcc	r4, [r0], -ip
30004b38:	30004ddc 	ldrdcc	r4, [r0], -ip
30004b3c:	30004ddc 	ldrdcc	r4, [r0], -ip
30004b40:	30004ddc 	ldrdcc	r4, [r0], -ip
30004b44:	30004ddc 	ldrdcc	r4, [r0], -ip
30004b48:	30004ddc 	ldrdcc	r4, [r0], -ip
30004b4c:	30004ddc 	ldrdcc	r4, [r0], -ip
30004b50:	30004ddc 	ldrdcc	r4, [r0], -ip
30004b54:	30004ddc 	ldrdcc	r4, [r0], -ip
30004b58:	30004ddc 	ldrdcc	r4, [r0], -ip
30004b5c:	30004ddc 	ldrdcc	r4, [r0], -ip
30004b60:	30004ddc 	ldrdcc	r4, [r0], -ip
30004b64:	30004ddc 	ldrdcc	r4, [r0], -ip
30004b68:	30004ddc 	ldrdcc	r4, [r0], -ip
30004b6c:	30004ddc 	ldrdcc	r4, [r0], -ip
30004b70:	30004ddc 	ldrdcc	r4, [r0], -ip
30004b74:	30004d98 	mulcc	r0, r8, sp
30004b78:	30004ddc 	ldrdcc	r4, [r0], -ip
30004b7c:	30004ddc 	ldrdcc	r4, [r0], -ip
30004b80:	30004ddc 	ldrdcc	r4, [r0], -ip
30004b84:	30004ddc 	ldrdcc	r4, [r0], -ip
30004b88:	30004ddc 	ldrdcc	r4, [r0], -ip
30004b8c:	30004ddc 	ldrdcc	r4, [r0], -ip
30004b90:	30004ddc 	ldrdcc	r4, [r0], -ip
30004b94:	30004ddc 	ldrdcc	r4, [r0], -ip
30004b98:	30004ddc 	ldrdcc	r4, [r0], -ip
30004b9c:	30004ddc 	ldrdcc	r4, [r0], -ip
30004ba0:	30004bf8 	strdcc	r4, [r0], -r8
30004ba4:	30004dac 	andcc	r4, r0, ip, lsr #27
30004ba8:	30004ddc 	ldrdcc	r4, [r0], -ip
30004bac:	30004ddc 	ldrdcc	r4, [r0], -ip
30004bb0:	30004ddc 	ldrdcc	r4, [r0], -ip
30004bb4:	30004ddc 	ldrdcc	r4, [r0], -ip
30004bb8:	30004da4 	andcc	r4, r0, r4, lsr #27
30004bbc:	30004ddc 	ldrdcc	r4, [r0], -ip
30004bc0:	30004ddc 	ldrdcc	r4, [r0], -ip
30004bc4:	30004ddc 	ldrdcc	r4, [r0], -ip
30004bc8:	30004ddc 	ldrdcc	r4, [r0], -ip
30004bcc:	30004d5c 	andcc	r4, r0, ip, asr sp
30004bd0:	30004d8c 	andcc	r4, r0, ip, lsl #27
30004bd4:	30004ddc 	ldrdcc	r4, [r0], -ip
30004bd8:	30004ddc 	ldrdcc	r4, [r0], -ip
30004bdc:	30004ddc 	ldrdcc	r4, [r0], -ip
30004be0:	30004c7c 	andcc	r4, r0, ip, ror ip
30004be4:	30004ddc 	ldrdcc	r4, [r0], -ip
30004be8:	30004de4 	andcc	r4, r0, r4, ror #27
30004bec:	30004ddc 	ldrdcc	r4, [r0], -ip
30004bf0:	30004ddc 	ldrdcc	r4, [r0], -ip
30004bf4:	30004d98 	mulcc	r0, r8, sp
30004bf8:	e51b3070 	ldr	r3, [fp, #-112]	; 0xffffff90
30004bfc:	e2833004 	add	r3, r3, #4
30004c00:	e50b3070 	str	r3, [fp, #-112]	; 0xffffff90
30004c04:	e51b3070 	ldr	r3, [fp, #-112]	; 0xffffff90
30004c08:	e5133004 	ldr	r3, [r3, #-4]
30004c0c:	e50b302c 	str	r3, [fp, #-44]	; 0xffffffd4
30004c10:	e51b3024 	ldr	r3, [fp, #-36]	; 0xffffffdc
30004c14:	e3730001 	cmn	r3, #1
30004c18:	1a000001 	bne	30004c24 <vsscanf+0x494>
30004c1c:	e3a03001 	mov	r3, #1
30004c20:	e50b3024 	str	r3, [fp, #-36]	; 0xffffffdc
30004c24:	e51b302c 	ldr	r3, [fp, #-44]	; 0xffffffd4
30004c28:	e2832001 	add	r2, r3, #1
30004c2c:	e50b202c 	str	r2, [fp, #-44]	; 0xffffffd4
30004c30:	e51b2010 	ldr	r2, [fp, #-16]
30004c34:	e2821001 	add	r1, r2, #1
30004c38:	e50b1010 	str	r1, [fp, #-16]
30004c3c:	e5d22000 	ldrb	r2, [r2]
30004c40:	e5c32000 	strb	r2, [r3]
30004c44:	e51b3024 	ldr	r3, [fp, #-36]	; 0xffffffdc
30004c48:	e2433001 	sub	r3, r3, #1
30004c4c:	e50b3024 	str	r3, [fp, #-36]	; 0xffffffdc
30004c50:	e51b3024 	ldr	r3, [fp, #-36]	; 0xffffffdc
30004c54:	e3530000 	cmp	r3, #0
30004c58:	da000003 	ble	30004c6c <vsscanf+0x4dc>
30004c5c:	e51b3010 	ldr	r3, [fp, #-16]
30004c60:	e5d33000 	ldrb	r3, [r3]
30004c64:	e3530000 	cmp	r3, #0
30004c68:	1affffed 	bne	30004c24 <vsscanf+0x494>
30004c6c:	e51b3018 	ldr	r3, [fp, #-24]	; 0xffffffe8
30004c70:	e2833001 	add	r3, r3, #1
30004c74:	e50b3018 	str	r3, [fp, #-24]	; 0xffffffe8
30004c78:	ea0001a4 	b	30005310 <vsscanf+0xb80>
30004c7c:	e51b3070 	ldr	r3, [fp, #-112]	; 0xffffff90
30004c80:	e2833004 	add	r3, r3, #4
30004c84:	e50b3070 	str	r3, [fp, #-112]	; 0xffffff90
30004c88:	e51b3070 	ldr	r3, [fp, #-112]	; 0xffffff90
30004c8c:	e5133004 	ldr	r3, [r3, #-4]
30004c90:	e50b3030 	str	r3, [fp, #-48]	; 0xffffffd0
30004c94:	e51b3024 	ldr	r3, [fp, #-36]	; 0xffffffdc
30004c98:	e3730001 	cmn	r3, #1
30004c9c:	1a000001 	bne	30004ca8 <vsscanf+0x518>
30004ca0:	e3e03102 	mvn	r3, #-2147483648	; 0x80000000
30004ca4:	e50b3024 	str	r3, [fp, #-36]	; 0xffffffdc
30004ca8:	ea000002 	b	30004cb8 <vsscanf+0x528>
30004cac:	e51b3010 	ldr	r3, [fp, #-16]
30004cb0:	e2833001 	add	r3, r3, #1
30004cb4:	e50b3010 	str	r3, [fp, #-16]
30004cb8:	e51b3010 	ldr	r3, [fp, #-16]
30004cbc:	e5d33000 	ldrb	r3, [r3]
30004cc0:	e1a02003 	mov	r2, r3
30004cc4:	e59f3678 	ldr	r3, [pc, #1656]	; 30005344 <vsscanf+0xbb4>
30004cc8:	e7d33002 	ldrb	r3, [r3, r2]
30004ccc:	e2033020 	and	r3, r3, #32
30004cd0:	e3530000 	cmp	r3, #0
30004cd4:	1afffff4 	bne	30004cac <vsscanf+0x51c>
30004cd8:	ea000007 	b	30004cfc <vsscanf+0x56c>
30004cdc:	e51b3030 	ldr	r3, [fp, #-48]	; 0xffffffd0
30004ce0:	e2832001 	add	r2, r3, #1
30004ce4:	e50b2030 	str	r2, [fp, #-48]	; 0xffffffd0
30004ce8:	e51b2010 	ldr	r2, [fp, #-16]
30004cec:	e2821001 	add	r1, r2, #1
30004cf0:	e50b1010 	str	r1, [fp, #-16]
30004cf4:	e5d22000 	ldrb	r2, [r2]
30004cf8:	e5c32000 	strb	r2, [r3]
30004cfc:	e51b3010 	ldr	r3, [fp, #-16]
30004d00:	e5d33000 	ldrb	r3, [r3]
30004d04:	e3530000 	cmp	r3, #0
30004d08:	0a00000c 	beq	30004d40 <vsscanf+0x5b0>
30004d0c:	e51b3010 	ldr	r3, [fp, #-16]
30004d10:	e5d33000 	ldrb	r3, [r3]
30004d14:	e1a02003 	mov	r2, r3
30004d18:	e59f3624 	ldr	r3, [pc, #1572]	; 30005344 <vsscanf+0xbb4>
30004d1c:	e7d33002 	ldrb	r3, [r3, r2]
30004d20:	e2033020 	and	r3, r3, #32
30004d24:	e3530000 	cmp	r3, #0
30004d28:	1a000004 	bne	30004d40 <vsscanf+0x5b0>
30004d2c:	e51b3024 	ldr	r3, [fp, #-36]	; 0xffffffdc
30004d30:	e2432001 	sub	r2, r3, #1
30004d34:	e50b2024 	str	r2, [fp, #-36]	; 0xffffffdc
30004d38:	e3530000 	cmp	r3, #0
30004d3c:	1affffe6 	bne	30004cdc <vsscanf+0x54c>
30004d40:	e51b3030 	ldr	r3, [fp, #-48]	; 0xffffffd0
30004d44:	e3a02000 	mov	r2, #0
30004d48:	e5c32000 	strb	r2, [r3]
30004d4c:	e51b3018 	ldr	r3, [fp, #-24]	; 0xffffffe8
30004d50:	e2833001 	add	r3, r3, #1
30004d54:	e50b3018 	str	r3, [fp, #-24]	; 0xffffffe8
30004d58:	ea00016c 	b	30005310 <vsscanf+0xb80>
30004d5c:	e51b3070 	ldr	r3, [fp, #-112]	; 0xffffff90
30004d60:	e2833004 	add	r3, r3, #4
30004d64:	e50b3070 	str	r3, [fp, #-112]	; 0xffffff90
30004d68:	e51b3070 	ldr	r3, [fp, #-112]	; 0xffffff90
30004d6c:	e5133004 	ldr	r3, [r3, #-4]
30004d70:	e50b3034 	str	r3, [fp, #-52]	; 0xffffffcc
30004d74:	e51b2010 	ldr	r2, [fp, #-16]
30004d78:	e51b3068 	ldr	r3, [fp, #-104]	; 0xffffff98
30004d7c:	e0632002 	rsb	r2, r3, r2
30004d80:	e51b3034 	ldr	r3, [fp, #-52]	; 0xffffffcc
30004d84:	e5832000 	str	r2, [r3]
30004d88:	ea000160 	b	30005310 <vsscanf+0xb80>
30004d8c:	e3a03008 	mov	r3, #8
30004d90:	e50b3020 	str	r3, [fp, #-32]	; 0xffffffe0
30004d94:	ea000013 	b	30004de8 <vsscanf+0x658>
30004d98:	e3a03010 	mov	r3, #16
30004d9c:	e50b3020 	str	r3, [fp, #-32]	; 0xffffffe0
30004da0:	ea000010 	b	30004de8 <vsscanf+0x658>
30004da4:	e3a03000 	mov	r3, #0
30004da8:	e50b3020 	str	r3, [fp, #-32]	; 0xffffffe0
30004dac:	e3a03001 	mov	r3, #1
30004db0:	e50b3028 	str	r3, [fp, #-40]	; 0xffffffd8
30004db4:	ea00000a 	b	30004de4 <vsscanf+0x654>
30004db8:	e51b3010 	ldr	r3, [fp, #-16]
30004dbc:	e2832001 	add	r2, r3, #1
30004dc0:	e50b2010 	str	r2, [fp, #-16]
30004dc4:	e5d33000 	ldrb	r3, [r3]
30004dc8:	e3530025 	cmp	r3, #37	; 0x25
30004dcc:	0a000001 	beq	30004dd8 <vsscanf+0x648>
30004dd0:	e51b3018 	ldr	r3, [fp, #-24]	; 0xffffffe8
30004dd4:	ea000156 	b	30005334 <vsscanf+0xba4>
30004dd8:	ea00014c 	b	30005310 <vsscanf+0xb80>
30004ddc:	e51b3018 	ldr	r3, [fp, #-24]	; 0xffffffe8
30004de0:	ea000153 	b	30005334 <vsscanf+0xba4>
30004de4:	e1a00000 	nop			; (mov r0, r0)
30004de8:	ea000002 	b	30004df8 <vsscanf+0x668>
30004dec:	e51b3010 	ldr	r3, [fp, #-16]
30004df0:	e2833001 	add	r3, r3, #1
30004df4:	e50b3010 	str	r3, [fp, #-16]
30004df8:	e51b3010 	ldr	r3, [fp, #-16]
30004dfc:	e5d33000 	ldrb	r3, [r3]
30004e00:	e1a02003 	mov	r2, r3
30004e04:	e59f3538 	ldr	r3, [pc, #1336]	; 30005344 <vsscanf+0xbb4>
30004e08:	e7d33002 	ldrb	r3, [r3, r2]
30004e0c:	e2033020 	and	r3, r3, #32
30004e10:	e3530000 	cmp	r3, #0
30004e14:	1afffff4 	bne	30004dec <vsscanf+0x65c>
30004e18:	e51b3010 	ldr	r3, [fp, #-16]
30004e1c:	e5d33000 	ldrb	r3, [r3]
30004e20:	e54b3011 	strb	r3, [fp, #-17]	; 0xffffffef
30004e24:	e51b3028 	ldr	r3, [fp, #-40]	; 0xffffffd8
30004e28:	e3530000 	cmp	r3, #0
30004e2c:	0a000005 	beq	30004e48 <vsscanf+0x6b8>
30004e30:	e55b3011 	ldrb	r3, [fp, #-17]	; 0xffffffef
30004e34:	e353002d 	cmp	r3, #45	; 0x2d
30004e38:	1a000002 	bne	30004e48 <vsscanf+0x6b8>
30004e3c:	e51b3010 	ldr	r3, [fp, #-16]
30004e40:	e5d33001 	ldrb	r3, [r3, #1]
30004e44:	e54b3011 	strb	r3, [fp, #-17]	; 0xffffffef
30004e48:	e55b3011 	ldrb	r3, [fp, #-17]	; 0xffffffef
30004e4c:	e3530000 	cmp	r3, #0
30004e50:	0a000136 	beq	30005330 <vsscanf+0xba0>
30004e54:	e51b3020 	ldr	r3, [fp, #-32]	; 0xffffffe0
30004e58:	e3530010 	cmp	r3, #16
30004e5c:	1a000005 	bne	30004e78 <vsscanf+0x6e8>
30004e60:	e55b3011 	ldrb	r3, [fp, #-17]	; 0xffffffef
30004e64:	e59f24d8 	ldr	r2, [pc, #1240]	; 30005344 <vsscanf+0xbb4>
30004e68:	e7d23003 	ldrb	r3, [r2, r3]
30004e6c:	e2033044 	and	r3, r3, #68	; 0x44
30004e70:	e3530000 	cmp	r3, #0
30004e74:	0a00012d 	beq	30005330 <vsscanf+0xba0>
30004e78:	e51b3020 	ldr	r3, [fp, #-32]	; 0xffffffe0
30004e7c:	e353000a 	cmp	r3, #10
30004e80:	1a000005 	bne	30004e9c <vsscanf+0x70c>
30004e84:	e55b3011 	ldrb	r3, [fp, #-17]	; 0xffffffef
30004e88:	e59f24b4 	ldr	r2, [pc, #1204]	; 30005344 <vsscanf+0xbb4>
30004e8c:	e7d23003 	ldrb	r3, [r2, r3]
30004e90:	e2033004 	and	r3, r3, #4
30004e94:	e3530000 	cmp	r3, #0
30004e98:	0a000124 	beq	30005330 <vsscanf+0xba0>
30004e9c:	e51b3020 	ldr	r3, [fp, #-32]	; 0xffffffe0
30004ea0:	e3530008 	cmp	r3, #8
30004ea4:	1a000008 	bne	30004ecc <vsscanf+0x73c>
30004ea8:	e55b3011 	ldrb	r3, [fp, #-17]	; 0xffffffef
30004eac:	e59f2490 	ldr	r2, [pc, #1168]	; 30005344 <vsscanf+0xbb4>
30004eb0:	e7d23003 	ldrb	r3, [r2, r3]
30004eb4:	e2033004 	and	r3, r3, #4
30004eb8:	e3530000 	cmp	r3, #0
30004ebc:	0a00011b 	beq	30005330 <vsscanf+0xba0>
30004ec0:	e55b3011 	ldrb	r3, [fp, #-17]	; 0xffffffef
30004ec4:	e3530037 	cmp	r3, #55	; 0x37
30004ec8:	8a000118 	bhi	30005330 <vsscanf+0xba0>
30004ecc:	e51b3020 	ldr	r3, [fp, #-32]	; 0xffffffe0
30004ed0:	e3530000 	cmp	r3, #0
30004ed4:	1a000005 	bne	30004ef0 <vsscanf+0x760>
30004ed8:	e55b3011 	ldrb	r3, [fp, #-17]	; 0xffffffef
30004edc:	e59f2460 	ldr	r2, [pc, #1120]	; 30005344 <vsscanf+0xbb4>
30004ee0:	e7d23003 	ldrb	r3, [r2, r3]
30004ee4:	e2033004 	and	r3, r3, #4
30004ee8:	e3530000 	cmp	r3, #0
30004eec:	0a00010f 	beq	30005330 <vsscanf+0xba0>
30004ef0:	e51b301c 	ldr	r3, [fp, #-28]	; 0xffffffe4
30004ef4:	e2433048 	sub	r3, r3, #72	; 0x48
30004ef8:	e3530032 	cmp	r3, #50	; 0x32
30004efc:	979ff103 	ldrls	pc, [pc, r3, lsl #2]
30004f00:	ea0000d6 	b	30005260 <vsscanf+0xad0>
30004f04:	30004fd0 	ldrdcc	r4, [r0], -r0
30004f08:	30005260 	andcc	r5, r0, r0, ror #4
30004f0c:	30005260 	andcc	r5, r0, r0, ror #4
30004f10:	30005260 	andcc	r5, r0, r0, ror #4
30004f14:	3000518c 	andcc	r5, r0, ip, lsl #3
30004f18:	30005260 	andcc	r5, r0, r0, ror #4
30004f1c:	30005260 	andcc	r5, r0, r0, ror #4
30004f20:	30005260 	andcc	r5, r0, r0, ror #4
30004f24:	30005260 	andcc	r5, r0, r0, ror #4
30004f28:	30005260 	andcc	r5, r0, r0, ror #4
30004f2c:	30005260 	andcc	r5, r0, r0, ror #4
30004f30:	30005260 	andcc	r5, r0, r0, ror #4
30004f34:	30005260 	andcc	r5, r0, r0, ror #4
30004f38:	30005260 	andcc	r5, r0, r0, ror #4
30004f3c:	30005260 	andcc	r5, r0, r0, ror #4
30004f40:	30005260 	andcc	r5, r0, r0, ror #4
30004f44:	30005260 	andcc	r5, r0, r0, ror #4
30004f48:	30005260 	andcc	r5, r0, r0, ror #4
30004f4c:	30005220 	andcc	r5, r0, r0, lsr #4
30004f50:	30005260 	andcc	r5, r0, r0, ror #4
30004f54:	30005260 	andcc	r5, r0, r0, ror #4
30004f58:	30005260 	andcc	r5, r0, r0, ror #4
30004f5c:	30005260 	andcc	r5, r0, r0, ror #4
30004f60:	30005260 	andcc	r5, r0, r0, ror #4
30004f64:	30005260 	andcc	r5, r0, r0, ror #4
30004f68:	30005260 	andcc	r5, r0, r0, ror #4
30004f6c:	30005260 	andcc	r5, r0, r0, ror #4
30004f70:	30005260 	andcc	r5, r0, r0, ror #4
30004f74:	30005260 	andcc	r5, r0, r0, ror #4
30004f78:	30005260 	andcc	r5, r0, r0, ror #4
30004f7c:	30005260 	andcc	r5, r0, r0, ror #4
30004f80:	30005260 	andcc	r5, r0, r0, ror #4
30004f84:	30005064 	andcc	r5, r0, r4, rrx
30004f88:	30005260 	andcc	r5, r0, r0, ror #4
30004f8c:	30005260 	andcc	r5, r0, r0, ror #4
30004f90:	30005260 	andcc	r5, r0, r0, ror #4
30004f94:	30005100 	andcc	r5, r0, r0, lsl #2
30004f98:	30005260 	andcc	r5, r0, r0, ror #4
30004f9c:	30005260 	andcc	r5, r0, r0, ror #4
30004fa0:	30005260 	andcc	r5, r0, r0, ror #4
30004fa4:	30005260 	andcc	r5, r0, r0, ror #4
30004fa8:	30005260 	andcc	r5, r0, r0, ror #4
30004fac:	30005260 	andcc	r5, r0, r0, ror #4
30004fb0:	30005260 	andcc	r5, r0, r0, ror #4
30004fb4:	30005260 	andcc	r5, r0, r0, ror #4
30004fb8:	30005260 	andcc	r5, r0, r0, ror #4
30004fbc:	30005260 	andcc	r5, r0, r0, ror #4
30004fc0:	30005260 	andcc	r5, r0, r0, ror #4
30004fc4:	30005260 	andcc	r5, r0, r0, ror #4
30004fc8:	30005260 	andcc	r5, r0, r0, ror #4
30004fcc:	30005220 	andcc	r5, r0, r0, lsr #4
30004fd0:	e51b3028 	ldr	r3, [fp, #-40]	; 0xffffffd8
30004fd4:	e3530000 	cmp	r3, #0
30004fd8:	0a000010 	beq	30005020 <vsscanf+0x890>
30004fdc:	e51b3070 	ldr	r3, [fp, #-112]	; 0xffffff90
30004fe0:	e2833004 	add	r3, r3, #4
30004fe4:	e50b3070 	str	r3, [fp, #-112]	; 0xffffff90
30004fe8:	e51b3070 	ldr	r3, [fp, #-112]	; 0xffffff90
30004fec:	e5133004 	ldr	r3, [r3, #-4]
30004ff0:	e50b3038 	str	r3, [fp, #-56]	; 0xffffffc8
30004ff4:	e51b3020 	ldr	r3, [fp, #-32]	; 0xffffffe0
30004ff8:	e24b2064 	sub	r2, fp, #100	; 0x64
30004ffc:	e51b0010 	ldr	r0, [fp, #-16]
30005000:	e1a01002 	mov	r1, r2
30005004:	e1a02003 	mov	r2, r3
30005008:	ebfff88c 	bl	30003240 <simple_strtol>
3000500c:	e1a03000 	mov	r3, r0
30005010:	e20320ff 	and	r2, r3, #255	; 0xff
30005014:	e51b3038 	ldr	r3, [fp, #-56]	; 0xffffffc8
30005018:	e5c32000 	strb	r2, [r3]
3000501c:	ea0000b2 	b	300052ec <vsscanf+0xb5c>
30005020:	e51b3070 	ldr	r3, [fp, #-112]	; 0xffffff90
30005024:	e2833004 	add	r3, r3, #4
30005028:	e50b3070 	str	r3, [fp, #-112]	; 0xffffff90
3000502c:	e51b3070 	ldr	r3, [fp, #-112]	; 0xffffff90
30005030:	e5133004 	ldr	r3, [r3, #-4]
30005034:	e50b303c 	str	r3, [fp, #-60]	; 0xffffffc4
30005038:	e51b3020 	ldr	r3, [fp, #-32]	; 0xffffffe0
3000503c:	e24b2064 	sub	r2, fp, #100	; 0x64
30005040:	e51b0010 	ldr	r0, [fp, #-16]
30005044:	e1a01002 	mov	r1, r2
30005048:	e1a02003 	mov	r2, r3
3000504c:	ebfff808 	bl	30003074 <simple_strtoul>
30005050:	e1a03000 	mov	r3, r0
30005054:	e20320ff 	and	r2, r3, #255	; 0xff
30005058:	e51b303c 	ldr	r3, [fp, #-60]	; 0xffffffc4
3000505c:	e5c32000 	strb	r2, [r3]
30005060:	ea0000a1 	b	300052ec <vsscanf+0xb5c>
30005064:	e51b3028 	ldr	r3, [fp, #-40]	; 0xffffffd8
30005068:	e3530000 	cmp	r3, #0
3000506c:	0a000011 	beq	300050b8 <vsscanf+0x928>
30005070:	e51b3070 	ldr	r3, [fp, #-112]	; 0xffffff90
30005074:	e2833004 	add	r3, r3, #4
30005078:	e50b3070 	str	r3, [fp, #-112]	; 0xffffff90
3000507c:	e51b3070 	ldr	r3, [fp, #-112]	; 0xffffff90
30005080:	e5133004 	ldr	r3, [r3, #-4]
30005084:	e50b3040 	str	r3, [fp, #-64]	; 0xffffffc0
30005088:	e51b3020 	ldr	r3, [fp, #-32]	; 0xffffffe0
3000508c:	e24b2064 	sub	r2, fp, #100	; 0x64
30005090:	e51b0010 	ldr	r0, [fp, #-16]
30005094:	e1a01002 	mov	r1, r2
30005098:	e1a02003 	mov	r2, r3
3000509c:	ebfff867 	bl	30003240 <simple_strtol>
300050a0:	e1a03000 	mov	r3, r0
300050a4:	e1a03803 	lsl	r3, r3, #16
300050a8:	e1a02823 	lsr	r2, r3, #16
300050ac:	e51b3040 	ldr	r3, [fp, #-64]	; 0xffffffc0
300050b0:	e1c320b0 	strh	r2, [r3]
300050b4:	ea00008c 	b	300052ec <vsscanf+0xb5c>
300050b8:	e51b3070 	ldr	r3, [fp, #-112]	; 0xffffff90
300050bc:	e2833004 	add	r3, r3, #4
300050c0:	e50b3070 	str	r3, [fp, #-112]	; 0xffffff90
300050c4:	e51b3070 	ldr	r3, [fp, #-112]	; 0xffffff90
300050c8:	e5133004 	ldr	r3, [r3, #-4]
300050cc:	e50b3044 	str	r3, [fp, #-68]	; 0xffffffbc
300050d0:	e51b3020 	ldr	r3, [fp, #-32]	; 0xffffffe0
300050d4:	e24b2064 	sub	r2, fp, #100	; 0x64
300050d8:	e51b0010 	ldr	r0, [fp, #-16]
300050dc:	e1a01002 	mov	r1, r2
300050e0:	e1a02003 	mov	r2, r3
300050e4:	ebfff7e2 	bl	30003074 <simple_strtoul>
300050e8:	e1a03000 	mov	r3, r0
300050ec:	e1a03803 	lsl	r3, r3, #16
300050f0:	e1a02823 	lsr	r2, r3, #16
300050f4:	e51b3044 	ldr	r3, [fp, #-68]	; 0xffffffbc
300050f8:	e1c320b0 	strh	r2, [r3]
300050fc:	ea00007a 	b	300052ec <vsscanf+0xb5c>
30005100:	e51b3028 	ldr	r3, [fp, #-40]	; 0xffffffd8
30005104:	e3530000 	cmp	r3, #0
30005108:	0a00000f 	beq	3000514c <vsscanf+0x9bc>
3000510c:	e51b3070 	ldr	r3, [fp, #-112]	; 0xffffff90
30005110:	e2833004 	add	r3, r3, #4
30005114:	e50b3070 	str	r3, [fp, #-112]	; 0xffffff90
30005118:	e51b3070 	ldr	r3, [fp, #-112]	; 0xffffff90
3000511c:	e5133004 	ldr	r3, [r3, #-4]
30005120:	e50b3048 	str	r3, [fp, #-72]	; 0xffffffb8
30005124:	e51b3020 	ldr	r3, [fp, #-32]	; 0xffffffe0
30005128:	e24b2064 	sub	r2, fp, #100	; 0x64
3000512c:	e51b0010 	ldr	r0, [fp, #-16]
30005130:	e1a01002 	mov	r1, r2
30005134:	e1a02003 	mov	r2, r3
30005138:	ebfff840 	bl	30003240 <simple_strtol>
3000513c:	e1a02000 	mov	r2, r0
30005140:	e51b3048 	ldr	r3, [fp, #-72]	; 0xffffffb8
30005144:	e5832000 	str	r2, [r3]
30005148:	ea000067 	b	300052ec <vsscanf+0xb5c>
3000514c:	e51b3070 	ldr	r3, [fp, #-112]	; 0xffffff90
30005150:	e2833004 	add	r3, r3, #4
30005154:	e50b3070 	str	r3, [fp, #-112]	; 0xffffff90
30005158:	e51b3070 	ldr	r3, [fp, #-112]	; 0xffffff90
3000515c:	e5133004 	ldr	r3, [r3, #-4]
30005160:	e50b304c 	str	r3, [fp, #-76]	; 0xffffffb4
30005164:	e51b3020 	ldr	r3, [fp, #-32]	; 0xffffffe0
30005168:	e24b2064 	sub	r2, fp, #100	; 0x64
3000516c:	e51b0010 	ldr	r0, [fp, #-16]
30005170:	e1a01002 	mov	r1, r2
30005174:	e1a02003 	mov	r2, r3
30005178:	ebfff7bd 	bl	30003074 <simple_strtoul>
3000517c:	e1a02000 	mov	r2, r0
30005180:	e51b304c 	ldr	r3, [fp, #-76]	; 0xffffffb4
30005184:	e5832000 	str	r2, [r3]
30005188:	ea000057 	b	300052ec <vsscanf+0xb5c>
3000518c:	e51b3028 	ldr	r3, [fp, #-40]	; 0xffffffd8
30005190:	e3530000 	cmp	r3, #0
30005194:	0a000010 	beq	300051dc <vsscanf+0xa4c>
30005198:	e51b3070 	ldr	r3, [fp, #-112]	; 0xffffff90
3000519c:	e2833004 	add	r3, r3, #4
300051a0:	e50b3070 	str	r3, [fp, #-112]	; 0xffffff90
300051a4:	e51b3070 	ldr	r3, [fp, #-112]	; 0xffffff90
300051a8:	e5133004 	ldr	r3, [r3, #-4]
300051ac:	e50b3050 	str	r3, [fp, #-80]	; 0xffffffb0
300051b0:	e51b3020 	ldr	r3, [fp, #-32]	; 0xffffffe0
300051b4:	e24b2064 	sub	r2, fp, #100	; 0x64
300051b8:	e51b0010 	ldr	r0, [fp, #-16]
300051bc:	e1a01002 	mov	r1, r2
300051c0:	e1a02003 	mov	r2, r3
300051c4:	ebfff8cc 	bl	300034fc <simple_strtoll>
300051c8:	e1a03000 	mov	r3, r0
300051cc:	e1a04001 	mov	r4, r1
300051d0:	e51b2050 	ldr	r2, [fp, #-80]	; 0xffffffb0
300051d4:	e8820018 	stm	r2, {r3, r4}
300051d8:	ea000043 	b	300052ec <vsscanf+0xb5c>
300051dc:	e51b3070 	ldr	r3, [fp, #-112]	; 0xffffff90
300051e0:	e2833004 	add	r3, r3, #4
300051e4:	e50b3070 	str	r3, [fp, #-112]	; 0xffffff90
300051e8:	e51b3070 	ldr	r3, [fp, #-112]	; 0xffffff90
300051ec:	e5133004 	ldr	r3, [r3, #-4]
300051f0:	e50b3054 	str	r3, [fp, #-84]	; 0xffffffac
300051f4:	e51b3020 	ldr	r3, [fp, #-32]	; 0xffffffe0
300051f8:	e24b2064 	sub	r2, fp, #100	; 0x64
300051fc:	e51b0010 	ldr	r0, [fp, #-16]
30005200:	e1a01002 	mov	r1, r2
30005204:	e1a02003 	mov	r2, r3
30005208:	ebfff828 	bl	300032b0 <simple_strtoull>
3000520c:	e1a03000 	mov	r3, r0
30005210:	e1a04001 	mov	r4, r1
30005214:	e51b2054 	ldr	r2, [fp, #-84]	; 0xffffffac
30005218:	e8820018 	stm	r2, {r3, r4}
3000521c:	ea000032 	b	300052ec <vsscanf+0xb5c>
30005220:	e51b3070 	ldr	r3, [fp, #-112]	; 0xffffff90
30005224:	e2833004 	add	r3, r3, #4
30005228:	e50b3070 	str	r3, [fp, #-112]	; 0xffffff90
3000522c:	e51b3070 	ldr	r3, [fp, #-112]	; 0xffffff90
30005230:	e5133004 	ldr	r3, [r3, #-4]
30005234:	e50b3058 	str	r3, [fp, #-88]	; 0xffffffa8
30005238:	e51b3020 	ldr	r3, [fp, #-32]	; 0xffffffe0
3000523c:	e24b2064 	sub	r2, fp, #100	; 0x64
30005240:	e51b0010 	ldr	r0, [fp, #-16]
30005244:	e1a01002 	mov	r1, r2
30005248:	e1a02003 	mov	r2, r3
3000524c:	ebfff788 	bl	30003074 <simple_strtoul>
30005250:	e1a02000 	mov	r2, r0
30005254:	e51b3058 	ldr	r3, [fp, #-88]	; 0xffffffa8
30005258:	e5832000 	str	r2, [r3]
3000525c:	ea000022 	b	300052ec <vsscanf+0xb5c>
30005260:	e51b3028 	ldr	r3, [fp, #-40]	; 0xffffffd8
30005264:	e3530000 	cmp	r3, #0
30005268:	0a00000f 	beq	300052ac <vsscanf+0xb1c>
3000526c:	e51b3070 	ldr	r3, [fp, #-112]	; 0xffffff90
30005270:	e2833004 	add	r3, r3, #4
30005274:	e50b3070 	str	r3, [fp, #-112]	; 0xffffff90
30005278:	e51b3070 	ldr	r3, [fp, #-112]	; 0xffffff90
3000527c:	e5133004 	ldr	r3, [r3, #-4]
30005280:	e50b305c 	str	r3, [fp, #-92]	; 0xffffffa4
30005284:	e51b3020 	ldr	r3, [fp, #-32]	; 0xffffffe0
30005288:	e24b2064 	sub	r2, fp, #100	; 0x64
3000528c:	e51b0010 	ldr	r0, [fp, #-16]
30005290:	e1a01002 	mov	r1, r2
30005294:	e1a02003 	mov	r2, r3
30005298:	ebfff7e8 	bl	30003240 <simple_strtol>
3000529c:	e1a02000 	mov	r2, r0
300052a0:	e51b305c 	ldr	r3, [fp, #-92]	; 0xffffffa4
300052a4:	e5832000 	str	r2, [r3]
300052a8:	ea00000e 	b	300052e8 <vsscanf+0xb58>
300052ac:	e51b3070 	ldr	r3, [fp, #-112]	; 0xffffff90
300052b0:	e2833004 	add	r3, r3, #4
300052b4:	e50b3070 	str	r3, [fp, #-112]	; 0xffffff90
300052b8:	e51b3070 	ldr	r3, [fp, #-112]	; 0xffffff90
300052bc:	e5133004 	ldr	r3, [r3, #-4]
300052c0:	e50b3060 	str	r3, [fp, #-96]	; 0xffffffa0
300052c4:	e51b3020 	ldr	r3, [fp, #-32]	; 0xffffffe0
300052c8:	e24b2064 	sub	r2, fp, #100	; 0x64
300052cc:	e51b0010 	ldr	r0, [fp, #-16]
300052d0:	e1a01002 	mov	r1, r2
300052d4:	e1a02003 	mov	r2, r3
300052d8:	ebfff765 	bl	30003074 <simple_strtoul>
300052dc:	e1a02000 	mov	r2, r0
300052e0:	e51b3060 	ldr	r3, [fp, #-96]	; 0xffffffa0
300052e4:	e5832000 	str	r2, [r3]
300052e8:	e1a00000 	nop			; (mov r0, r0)
300052ec:	e51b3018 	ldr	r3, [fp, #-24]	; 0xffffffe8
300052f0:	e2833001 	add	r3, r3, #1
300052f4:	e50b3018 	str	r3, [fp, #-24]	; 0xffffffe8
300052f8:	e51b3064 	ldr	r3, [fp, #-100]	; 0xffffff9c
300052fc:	e3530000 	cmp	r3, #0
30005300:	1a000000 	bne	30005308 <vsscanf+0xb78>
30005304:	ea000009 	b	30005330 <vsscanf+0xba0>
30005308:	e51b3064 	ldr	r3, [fp, #-100]	; 0xffffff9c
3000530c:	e50b3010 	str	r3, [fp, #-16]
30005310:	e51b306c 	ldr	r3, [fp, #-108]	; 0xffffff94
30005314:	e5d33000 	ldrb	r3, [r3]
30005318:	e3530000 	cmp	r3, #0
3000531c:	0a000003 	beq	30005330 <vsscanf+0xba0>
30005320:	e51b3010 	ldr	r3, [fp, #-16]
30005324:	e5d33000 	ldrb	r3, [r3]
30005328:	e3530000 	cmp	r3, #0
3000532c:	1afffd24 	bne	300047c4 <vsscanf+0x34>
30005330:	e51b3018 	ldr	r3, [fp, #-24]	; 0xffffffe8
30005334:	e1a00003 	mov	r0, r3
30005338:	e24bd008 	sub	sp, fp, #8
3000533c:	e8bd4810 	pop	{r4, fp, lr}
30005340:	e12fff1e 	bx	lr
30005344:	300056d0 	ldrdcc	r5, [r0], -r0

30005348 <sscanf>:
30005348:	e92d000e 	push	{r1, r2, r3}
3000534c:	e92d4800 	push	{fp, lr}
30005350:	e28db004 	add	fp, sp, #4
30005354:	e24dd014 	sub	sp, sp, #20
30005358:	e50b0014 	str	r0, [fp, #-20]	; 0xffffffec
3000535c:	e28b3008 	add	r3, fp, #8
30005360:	e50b300c 	str	r3, [fp, #-12]
30005364:	e59b3004 	ldr	r3, [fp, #4]
30005368:	e51b0014 	ldr	r0, [fp, #-20]	; 0xffffffec
3000536c:	e1a01003 	mov	r1, r3
30005370:	e51b200c 	ldr	r2, [fp, #-12]
30005374:	ebfffd05 	bl	30004790 <vsscanf>
30005378:	e50b0010 	str	r0, [fp, #-16]
3000537c:	e51b3010 	ldr	r3, [fp, #-16]
30005380:	e1a00003 	mov	r0, r3
30005384:	e24bd004 	sub	sp, fp, #4
30005388:	e8bd4800 	pop	{fp, lr}
3000538c:	e28dd00c 	add	sp, sp, #12
30005390:	e12fff1e 	bx	lr

Disassembly of section .rodata:

30005394 <large_digits.3802-0x2ec>:
30005394:	2064656c 	rsbcs	r6, r4, ip, ror #10
30005398:	31206e6f 			; <UNDEFINED> instruction: 0x31206e6f
3000539c:	00000a0d 	andeq	r0, r0, sp, lsl #20
300053a0:	31206f6c 			; <UNDEFINED> instruction: 0x31206f6c
300053a4:	00000a0d 	andeq	r0, r0, sp, lsl #20
300053a8:	2064656c 	rsbcs	r6, r4, ip, ror #10
300053ac:	0a0d6e6f 	beq	30360d70 <___strtok+0x357d34>
300053b0:	00000000 	andeq	r0, r0, r0
300053b4:	0a0d6f6c 	beq	3036116c <___strtok+0x358130>
300053b8:	00000000 	andeq	r0, r0, r0
300053bc:	2064656c 	rsbcs	r6, r4, ip, ror #10
300053c0:	32206e6f 	eorcc	r6, r0, #1776	; 0x6f0
300053c4:	00000a0d 	andeq	r0, r0, sp, lsl #20
300053c8:	32206f6c 	eorcc	r6, r0, #108, 30	; 0x1b0
300053cc:	00000a0d 	andeq	r0, r0, sp, lsl #20
300053d0:	2064656c 	rsbcs	r6, r4, ip, ror #10
300053d4:	33206e6f 			; <UNDEFINED> instruction: 0x33206e6f
300053d8:	00000a0d 	andeq	r0, r0, sp, lsl #20
300053dc:	33206f6c 			; <UNDEFINED> instruction: 0x33206f6c
300053e0:	00000a0d 	andeq	r0, r0, sp, lsl #20
300053e4:	2064656c 	rsbcs	r6, r4, ip, ror #10
300053e8:	74617473 	strbtvc	r7, [r1], #-1139	; 0xfffffb8d
300053ec:	74207375 	strtvc	r7, [r0], #-885	; 0xfffffc8b
300053f0:	206e7275 	rsbcs	r7, lr, r5, ror r2
300053f4:	000a0d31 	andeq	r0, sl, r1, lsr sp
300053f8:	2074736c 	rsbscs	r7, r4, ip, ror #6
300053fc:	000a0d31 	andeq	r0, sl, r1, lsr sp
30005400:	2064656c 	rsbcs	r6, r4, ip, ror #10
30005404:	74617473 	strbtvc	r7, [r1], #-1139	; 0xfffffb8d
30005408:	74207375 	strtvc	r7, [r0], #-885	; 0xfffffc8b
3000540c:	206e7275 	rsbcs	r7, lr, r5, ror r2
30005410:	000a0d32 	andeq	r0, sl, r2, lsr sp
30005414:	2074736c 	rsbscs	r7, r4, ip, ror #6
30005418:	000a0d32 	andeq	r0, sl, r2, lsr sp
3000541c:	2064656c 	rsbcs	r6, r4, ip, ror #10
30005420:	74617473 	strbtvc	r7, [r1], #-1139	; 0xfffffb8d
30005424:	74207375 	strtvc	r7, [r0], #-885	; 0xfffffc8b
30005428:	206e7275 	rsbcs	r7, lr, r5, ror r2
3000542c:	000a0d33 	andeq	r0, sl, r3, lsr sp
30005430:	2074736c 	rsbscs	r7, r4, ip, ror #6
30005434:	000a0d33 	andeq	r0, sl, r3, lsr sp
30005438:	646e616e 	strbtvs	r6, [lr], #-366	; 0xfffffe92
3000543c:	73657420 	cmnvc	r5, #32, 8	; 0x20000000
30005440:	000a0d74 	andeq	r0, sl, r4, ror sp
30005444:	0a0d746e 	beq	30362604 <___strtok+0x3595c8>
30005448:	00000000 	andeq	r0, r0, r0
3000544c:	6e6f7277 	mcrvs	2, 3, r7, cr15, cr7, {3}
30005450:	6f632067 	svcvs	0x00632067
30005454:	6e616d6d 	cdpvs	13, 6, cr6, cr1, cr13, {3}
30005458:	0a0d2164 	beq	3034d9f0 <___strtok+0x3449b4>
3000545c:	00000000 	andeq	r0, r0, r0
30005460:	75706e69 	ldrbvc	r6, [r0, #-3689]!	; 0xfffff197
30005464:	4d432074 	stclmi	0, cr2, [r3, #-464]	; 0xfffffe30
30005468:	6f202144 	svcvs	0x00202144
3000546c:	20796c6e 	rsbscs	r6, r9, lr, ror #24
30005470:	2064656c 	rsbcs	r6, r4, ip, ror #10
30005474:	20444d43 	subcs	r4, r4, r3, asr #26
30005478:	70707573 	rsbsvc	r7, r0, r3, ror r5
3000547c:	2074726f 	rsbscs	r7, r4, pc, ror #4
30005480:	21776f6e 	cmncs	r7, lr, ror #30
30005484:	70786520 	rsbsvc	r6, r8, r0, lsr #10
30005488:	0a0d203a 	beq	3034d578 <___strtok+0x34453c>
3000548c:	2a2a2a2a 	bcs	30a8fd3c <___strtok+0xa86d00>
30005490:	64656c20 	strbtvs	r6, [r5], #-3104	; 0xfffff3e0
30005494:	206e6f20 	rsbcs	r6, lr, r0, lsr #30
30005498:	6d756e5b 	ldclvs	14, cr6, [r5, #-364]!	; 0xfffffe94
3000549c:	2020205d 	eorcs	r2, r0, sp, asr r0
300054a0:	6c20726f 	sfmvs	f7, 4, [r0], #-444	; 0xfffffe44
300054a4:	756e206f 	strbvc	r2, [lr, #-111]!	; 0xffffff91
300054a8:	0920206d 	stmdbeq	r0!, {r0, r2, r3, r5, r6, sp}
300054ac:	6f206f74 	svcvs	0x00206f74
300054b0:	206e6570 	rsbcs	r6, lr, r0, ror r5
300054b4:	2064656c 	rsbcs	r6, r4, ip, ror #10
300054b8:	2e6d756e 	cdpcs	5, 6, cr7, cr13, cr14, {3}
300054bc:	2a2a0a0d 	bcs	30a87cf8 <___strtok+0xa7ecbc>
300054c0:	6c202a2a 	stcvs	10, cr2, [r0], #-168	; 0xffffff58
300054c4:	73206465 			; <UNDEFINED> instruction: 0x73206465
300054c8:	75746174 	ldrbvc	r6, [r4, #-372]!	; 0xfffffe8c
300054cc:	75742073 	ldrbvc	r2, [r4, #-115]!	; 0xffffff8d
300054d0:	5b206e72 	blpl	30820ea0 <___strtok+0x817e64>
300054d4:	5d6d756e 	cfstr64pl	mvdx7, [sp, #-440]!	; 0xfffffe48
300054d8:	20202020 	eorcs	r2, r0, r0, lsr #32
300054dc:	2020726f 	eorcs	r7, r0, pc, ror #4
300054e0:	2074736c 	rsbscs	r7, r4, ip, ror #6
300054e4:	6d756e5b 	ldclvs	14, cr6, [r5, #-364]!	; 0xfffffe94
300054e8:	7409205d 	strvc	r2, [r9], #-93	; 0xffffffa3
300054ec:	7574206f 	ldrbvc	r2, [r4, #-111]!	; 0xffffff91
300054f0:	74206e72 	strtvc	r6, [r0], #-3698	; 0xfffff18e
300054f4:	6e206568 	cfsh64vs	mvdx6, mvdx0, #56
300054f8:	73276d75 			; <UNDEFINED> instruction: 0x73276d75
300054fc:	64656c20 	strbtvs	r6, [r5], #-3104	; 0xfffff3e0
30005500:	61747320 	cmnvs	r4, r0, lsr #6
30005504:	0d737574 	cfldr64eq	mvdx7, [r3, #-464]!	; 0xfffffe30
30005508:	0000200a 	andeq	r2, r0, sl
3000550c:	72756f59 	rsbsvc	r6, r5, #356	; 0x164
30005510:	6d6f6320 	stclvs	3, cr6, [pc, #-128]!	; 30005498 <sscanf+0x150>
30005514:	646e616d 	strbtvs	r6, [lr], #-365	; 0xfffffe93
30005518:	73616820 	cmnvc	r1, #32, 16	; 0x200000
3000551c:	65656220 	strbvs	r6, [r5, #-544]!	; 0xfffffde0
30005520:	6570206e 	ldrbvs	r2, [r0, #-110]!	; 0xffffff92
30005524:	726f6672 	rsbvc	r6, pc, #119537664	; 0x7200000
30005528:	2164656d 	cmncs	r4, sp, ror #10
3000552c:	00000a0d 	andeq	r0, r0, sp, lsl #20
30005530:	00004b4f 	andeq	r4, r0, pc, asr #22
30005534:	2064656c 	rsbcs	r6, r4, ip, ror #10
30005538:	0a0d4e4f 	beq	30358e7c <___strtok+0x34fe40>
3000553c:	00000000 	andeq	r0, r0, r0
30005540:	636c2040 	cmnvs	ip, #64	; 0x40
30005544:	72645f64 	rsbvc	r5, r4, #100, 30	; 0x190
30005548:	3a632e76 	bcc	318d0f28 <___strtok+0x18c7eec>
3000554c:	5f64636c 	svcpl	0x0064636c
30005550:	6b636162 	blvs	318ddae0 <___strtok+0x18d4aa4>
30005554:	756f7267 	strbvc	r7, [pc, #-615]!	; 300052f5 <vsscanf+0xb65>
30005558:	6c5f646e 	cfldrdvs	mvd6, [pc], {110}	; 0x6e
3000555c:	735f6465 	cmpvc	pc, #1694498816	; 0x65000000
30005560:	63746977 	cmnvs	r4, #1949696	; 0x1dc000
30005564:	75642068 	strbvc	r2, [r4, #-104]!	; 0xffffff98
30005568:	20796d6d 	rsbscs	r6, r9, sp, ror #26
3000556c:	61726170 	cmnvs	r2, r0, ror r1
30005570:	6574656d 	ldrbvs	r6, [r4, #-1389]!	; 0xfffffa93
30005574:	00002172 	andeq	r2, r0, r2, ror r1
30005578:	54495753 	strbpl	r5, [r9], #-1875	; 0xfffff8ad
3000557c:	4f204843 	svcmi	0x00204843
30005580:	000a0d4e 	andeq	r0, sl, lr, asr #26
30005584:	54495753 	strbpl	r5, [r9], #-1875	; 0xfffff8ad
30005588:	4f204843 	svcmi	0x00204843
3000558c:	0a0d4646 	beq	30356eac <___strtok+0x34de70>
30005590:	00000000 	andeq	r0, r0, r0
30005594:	636c2040 	cmnvs	ip, #64	; 0x40
30005598:	72645f64 	rsbvc	r5, r4, #100, 30	; 0x190
3000559c:	3a632e76 	bcc	318d0f7c <___strtok+0x18c7f40>
300055a0:	5f64636c 	svcpl	0x0064636c
300055a4:	74697773 	strbtvc	r7, [r9], #-1907	; 0xfffff88d
300055a8:	64206863 	strtvs	r6, [r0], #-2147	; 0xfffff79d
300055ac:	796d6d75 	stmdbvc	sp!, {r0, r2, r4, r5, r6, r8, sl, fp, sp, lr}^
300055b0:	72617020 	rsbvc	r7, r1, #32
300055b4:	74656d61 	strbtvc	r6, [r5], #-3425	; 0xfffff29f
300055b8:	00217265 	eoreq	r7, r1, r5, ror #4
300055bc:	0d44434c 	stcleq	3, cr4, [r4, #-304]	; 0xfffffed0
300055c0:	0000000a 	andeq	r0, r0, sl
300055c4:	74696e69 	strbtvc	r6, [r9], #-3689	; 0xfffff197
300055c8:	75627720 	strbvc	r7, [r2, #-1824]!	; 0xfffff8e0
300055cc:	4f206666 	svcmi	0x00206666
300055d0:	00000a4b 	andeq	r0, r0, fp, asr #20
300055d4:	64616572 	strbtvs	r6, [r1], #-1394	; 0xfffffa8e
300055d8:	20646920 	rsbcs	r6, r4, r0, lsr #18
300055dc:	000a4b4f 	andeq	r4, sl, pc, asr #22
300055e0:	20782520 	rsbscs	r2, r8, r0, lsr #10
300055e4:	00000000 	andeq	r0, r0, r0
300055e8:	73617265 	cmnvc	r1, #1342177286	; 0x50000006
300055ec:	2e2e2e65 	cdpcs	14, 2, cr2, cr14, cr5, {3}
300055f0:	000a0a2e 	andeq	r0, sl, lr, lsr #20
300055f4:	73617265 	cmnvc	r1, #1342177286	; 0x50000006
300055f8:	6b6f2065 	blvs	31bcd794 <___strtok+0x1bc4758>
300055fc:	00000a0a 	andeq	r0, r0, sl, lsl #20
30005600:	00207825 	eoreq	r7, r0, r5, lsr #16
30005604:	74697277 	strbtvc	r7, [r9], #-631	; 0xfffffd89
30005608:	4b4f2065 	blmi	313cd7a4 <___strtok+0x13c4768>
3000560c:	000a0d20 	andeq	r0, sl, r0, lsr #26
30005610:	20207825 	eorcs	r7, r0, r5, lsr #16
30005614:	00000000 	andeq	r0, r0, r0
30005618:	6e206e49 	cdpvs	14, 2, cr6, cr0, cr9, {2}
3000561c:	31646e61 	cmncc	r4, r1, ror #28
30005620:	73657420 	cmnvc	r5, #32, 8	; 0x20000000
30005624:	4b4f3a74 	blmi	313d3ffc <___strtok+0x13cafc0>
30005628:	44490a20 	strbmi	r0, [r9], #-2592	; 0xfffff5e0
3000562c:	0a9abcef 	beq	2e6b49f0 <SDRAM_BASE_ADDR-0x194b610>
30005630:	00000000 	andeq	r0, r0, r0
30005634:	255f2020 	ldrbcs	r2, [pc, #-32]	; 3000561c <sscanf+0x2d4>
30005638:	00205f78 	eoreq	r5, r0, r8, ror pc
3000563c:	00007825 	andeq	r7, r0, r5, lsr #16
30005640:	646e616e 	strbtvs	r6, [lr], #-366	; 0xfffffe92
30005644:	20706f5f 	rsbscs	r6, r0, pc, asr pc
30005648:	0a0d6b4f 	beq	3036038c <___strtok+0x357350>
3000564c:	00000000 	andeq	r0, r0, r0
30005650:	65736572 	ldrbvs	r6, [r3, #-1394]!	; 0xfffffa8e
30005654:	6b4f2074 	blvs	313cd82c <___strtok+0x13c47f0>
30005658:	00000a0d 	andeq	r0, r0, sp, lsl #20
3000565c:	74206e69 	strtvc	r6, [r0], #-3689	; 0xfffff197
30005660:	70206568 	eorvc	r6, r0, r8, ror #10
30005664:	20656761 	rsbcs	r6, r5, r1, ror #14
30005668:	67696c61 	strbvs	r6, [r9, -r1, ror #24]!
3000566c:	2064656e 	rsbcs	r6, r4, lr, ror #10
30005670:	64616572 	strbtvs	r6, [r1], #-1394	; 0xfffffa8e
30005674:	00000021 	andeq	r0, r0, r1, lsr #32
30005678:	4c554e3c 	mrrcmi	14, 3, r4, r5, cr12
3000567c:	00003e4c 	andeq	r3, r0, ip, asr #28

30005680 <large_digits.3802>:
30005680:	33323130 	teqcc	r2, #48, 2
30005684:	37363534 			; <UNDEFINED> instruction: 0x37363534
30005688:	42413938 	submi	r3, r1, #56, 18	; 0xe0000
3000568c:	46454443 	strbmi	r4, [r5], -r3, asr #8
30005690:	4a494847 	bmi	312577b4 <___strtok+0x124e778>
30005694:	4e4d4c4b 	cdpmi	12, 4, cr4, cr13, cr11, {2}
30005698:	5251504f 	subspl	r5, r1, #79	; 0x4f
3000569c:	56555453 			; <UNDEFINED> instruction: 0x56555453
300056a0:	5a595857 	bpl	3165b804 <___strtok+0x16527c8>
300056a4:	00000000 	andeq	r0, r0, r0

300056a8 <small_digits.3801>:
300056a8:	33323130 	teqcc	r2, #48, 2
300056ac:	37363534 			; <UNDEFINED> instruction: 0x37363534
300056b0:	62613938 	rsbvs	r3, r1, #56, 18	; 0xe0000
300056b4:	66656463 	strbtvs	r6, [r5], -r3, ror #8
300056b8:	6a696867 	bvs	31a5f85c <___strtok+0x1a56820>
300056bc:	6e6d6c6b 	cdpvs	12, 6, cr6, cr13, cr11, {3}
300056c0:	7271706f 	rsbsvc	r7, r1, #111	; 0x6f
300056c4:	76757473 			; <UNDEFINED> instruction: 0x76757473
300056c8:	7a797877 	bvc	31e638ac <___strtok+0x1e5a870>
	...

Disassembly of section .data:

300056d0 <_ctype>:
300056d0:	08080808 	stmdaeq	r8, {r3, fp}
300056d4:	08080808 	stmdaeq	r8, {r3, fp}
300056d8:	28282808 	stmdacs	r8!, {r3, fp, sp}
300056dc:	08082828 	stmdaeq	r8, {r3, r5, fp, sp}
300056e0:	08080808 	stmdaeq	r8, {r3, fp}
300056e4:	08080808 	stmdaeq	r8, {r3, fp}
300056e8:	08080808 	stmdaeq	r8, {r3, fp}
300056ec:	08080808 	stmdaeq	r8, {r3, fp}
300056f0:	101010a0 	andsne	r1, r0, r0, lsr #1
300056f4:	10101010 	andsne	r1, r0, r0, lsl r0
300056f8:	10101010 	andsne	r1, r0, r0, lsl r0
300056fc:	10101010 	andsne	r1, r0, r0, lsl r0
30005700:	04040404 	streq	r0, [r4], #-1028	; 0xfffffbfc
30005704:	04040404 	streq	r0, [r4], #-1028	; 0xfffffbfc
30005708:	10100404 	andsne	r0, r0, r4, lsl #8
3000570c:	10101010 	andsne	r1, r0, r0, lsl r0
30005710:	41414110 	cmpmi	r1, r0, lsl r1
30005714:	01414141 	cmpeq	r1, r1, asr #2
30005718:	01010101 	tsteq	r1, r1, lsl #2
3000571c:	01010101 	tsteq	r1, r1, lsl #2
30005720:	01010101 	tsteq	r1, r1, lsl #2
30005724:	01010101 	tsteq	r1, r1, lsl #2
30005728:	10010101 	andne	r0, r1, r1, lsl #2
3000572c:	10101010 	andsne	r1, r0, r0, lsl r0
30005730:	42424210 	submi	r4, r2, #16, 4
30005734:	02424242 	subeq	r4, r2, #536870916	; 0x20000004
30005738:	02020202 	andeq	r0, r2, #536870912	; 0x20000000
3000573c:	02020202 	andeq	r0, r2, #536870912	; 0x20000000
30005740:	02020202 	andeq	r0, r2, #536870912	; 0x20000000
30005744:	02020202 	andeq	r0, r2, #536870912	; 0x20000000
30005748:	10020202 	andne	r0, r2, r2, lsl #4
3000574c:	08101010 	ldmdaeq	r0, {r4, ip}
	...
30005770:	101010a0 	andsne	r1, r0, r0, lsr #1
30005774:	10101010 	andsne	r1, r0, r0, lsl r0
30005778:	10101010 	andsne	r1, r0, r0, lsl r0
3000577c:	10101010 	andsne	r1, r0, r0, lsl r0
30005780:	10101010 	andsne	r1, r0, r0, lsl r0
30005784:	10101010 	andsne	r1, r0, r0, lsl r0
30005788:	10101010 	andsne	r1, r0, r0, lsl r0
3000578c:	10101010 	andsne	r1, r0, r0, lsl r0
30005790:	01010101 	tsteq	r1, r1, lsl #2
30005794:	01010101 	tsteq	r1, r1, lsl #2
30005798:	01010101 	tsteq	r1, r1, lsl #2
3000579c:	01010101 	tsteq	r1, r1, lsl #2
300057a0:	01010101 	tsteq	r1, r1, lsl #2
300057a4:	10010101 	andne	r0, r1, r1, lsl #2
300057a8:	01010101 	tsteq	r1, r1, lsl #2
300057ac:	02010101 	andeq	r0, r1, #1073741824	; 0x40000000
300057b0:	02020202 	andeq	r0, r2, #536870912	; 0x20000000
300057b4:	02020202 	andeq	r0, r2, #536870912	; 0x20000000
300057b8:	02020202 	andeq	r0, r2, #536870912	; 0x20000000
300057bc:	02020202 	andeq	r0, r2, #536870912	; 0x20000000
300057c0:	02020202 	andeq	r0, r2, #536870912	; 0x20000000
300057c4:	10020202 	andne	r0, r2, r2, lsl #4
300057c8:	02020202 	andeq	r0, r2, #536870912	; 0x20000000
300057cc:	02020202 	andeq	r0, r2, #536870912	; 0x20000000

300057d0 <led1>:
300057d0:	00030201 	andeq	r0, r3, r1, lsl #4

300057d1 <led2>:
300057d1:	00000302 	andeq	r0, r0, r2, lsl #6

300057d2 <led3>:
300057d2:	00000003 	andeq	r0, r0, r3

300057d4 <nand_reg>:
300057d4:	4e000000 	cdpmi	0, 0, cr0, cr0, cr0, {0}

300057d8 <rbuff>:
300057d8:	00000001 	andeq	r0, r0, r1
	...

30006fd8 <warn.3845>:
30006fd8:	00000001 	andeq	r0, r0, r1

Disassembly of section .bss:

30006fdc <current_status.3643>:
30006fdc:	00000000 	andeq	r0, r0, r0

30006fe0 <wbuff>:
	...

300087e0 <id>:
	...

300087e8 <g_pcOutBuf>:
	...

30008be8 <g_pcInBuf>:
	...

30008fe8 <input_buff.3680>:
	...

30009010 <s3clcd>:
	...

30009018 <nand_op>:
	...

3000903c <___strtok>:
3000903c:	00000000 	andeq	r0, r0, r0

Disassembly of section .comment:

00000000 <.comment>:
   0:	3a434347 	bcc	10d0d24 <SDRAM_BASE_ADDR-0x2ef2f2dc>
   4:	35312820 	ldrcc	r2, [r1, #-2080]!	; 0xfffff7e0
   8:	392e343a 	stmdbcc	lr!, {r1, r3, r4, r5, sl, ip, sp}
   c:	732b332e 			; <UNDEFINED> instruction: 0x732b332e
  10:	33326e76 	teqcc	r2, #1888	; 0x760
  14:	37373131 			; <UNDEFINED> instruction: 0x37373131
  18:	2029312d 	eorcs	r3, r9, sp, lsr #2
  1c:	2e392e34 	mrccs	14, 1, r2, cr9, cr4, {1}
  20:	30322033 	eorscc	r2, r2, r3, lsr r0
  24:	35303531 	ldrcc	r3, [r0, #-1329]!	; 0xfffffacf
  28:	28203932 	stmdacs	r0!, {r1, r4, r5, r8, fp, ip, sp}
  2c:	72657270 	rsbvc	r7, r5, #112, 4
  30:	61656c65 	cmnvs	r5, r5, ror #24
  34:	00296573 	eoreq	r6, r9, r3, ror r5

Disassembly of section .ARM.attributes:

00000000 <.ARM.attributes>:
   0:	00002b41 	andeq	r2, r0, r1, asr #22
   4:	61656100 	cmnvs	r5, r0, lsl #2
   8:	01006962 	tsteq	r0, r2, ror #18
   c:	00000021 	andeq	r0, r0, r1, lsr #32
  10:	4d524105 	ldfmie	f4, [r2, #-20]	; 0xffffffec
  14:	4d445437 	cfstrdmi	mvd5, [r4, #-220]	; 0xffffff24
  18:	02060049 	andeq	r0, r6, #73	; 0x49
  1c:	01090108 	tsteq	r9, r8, lsl #2
  20:	01140412 	tsteq	r4, r2, lsl r4
  24:	03170115 	tsteq	r7, #1073741829	; 0x40000005
  28:	011a0118 	tsteq	sl, r8, lsl r1
